---
triple:          'arm64-apple-darwin'
binary-path:     '/Users/junaidsinternational/whippy/whippy-app/integrations/sync/_build/dev/lib/appsignal/priv/appsignal_extension.so'
relocations:
  - { offset: 0x1E, size: 0x8, addend: 0x0, symName: __ZN5alloc7raw_vec17capacity_overflow17h40bf6f1131cd60a2E, symObjAddr: 0x24340, symBinAddr: 0x24B18, symSize: 0x3C }
  - { offset: 0x97, size: 0x8, addend: 0x0, symName: __ZN4core3fmt5Write9write_fmt17hee4f5f16c57c33a4E, symObjAddr: 0x24D74, symBinAddr: 0x2547C, symSize: 0x10 }
  - { offset: 0xCB, size: 0x8, addend: 0x0, symName: '__ZN53_$LT$core..fmt..Error$u20$as$u20$core..fmt..Debug$GT$3fmt17h91405a8b15eaa8faE', symObjAddr: 0x24CCC, symBinAddr: 0x253D4, symSize: 0x18 }
  - { offset: 0xE8, size: 0x8, addend: 0x0, symName: '__ZN53_$LT$core..fmt..Error$u20$as$u20$core..fmt..Debug$GT$3fmt17h91405a8b15eaa8faE', symObjAddr: 0x24CCC, symBinAddr: 0x253D4, symSize: 0x18 }
  - { offset: 0x745, size: 0x8, addend: 0x0, symName: __ZN5alloc7raw_vec17capacity_overflow17h40bf6f1131cd60a2E, symObjAddr: 0x24340, symBinAddr: 0x24B18, symSize: 0x3C }
  - { offset: 0x842, size: 0x8, addend: 0x0, symName: '__ZN5alloc7raw_vec19RawVec$LT$T$C$A$GT$16reserve_for_push17h85df2b11fc0c28d6E', symObjAddr: 0x24810, symBinAddr: 0x24F18, symSize: 0xB8 }
  - { offset: 0xA11, size: 0x8, addend: 0x0, symName: '__ZN5alloc7raw_vec19RawVec$LT$T$C$A$GT$7reserve21do_reserve_and_handle17h3ca6cba16c209e29E', symObjAddr: 0x243B8, symBinAddr: 0x172028, symSize: 0xB8 }
  - { offset: 0xB50, size: 0x8, addend: 0x0, symName: __ZN5alloc7raw_vec11finish_grow17h6615c70c6f574fceE, symObjAddr: 0x24470, symBinAddr: 0x24B78, symSize: 0x8C }
  - { offset: 0xC29, size: 0x8, addend: 0x0, symName: __ZN5alloc5alloc18handle_alloc_error17h68d57aab7c6b3b56E, symObjAddr: 0x2437C, symBinAddr: 0x172010, symSize: 0x18 }
  - { offset: 0xEE2, size: 0x8, addend: 0x0, symName: '__ZN5alloc3vec16Vec$LT$T$C$A$GT$6remove13assert_failed17h266a615a08c31994E', symObjAddr: 0x255F8, symBinAddr: 0x1720E0, symSize: 0x58 }
  - { offset: 0xF19, size: 0x8, addend: 0x0, symName: '__ZN5alloc3vec16Vec$LT$T$C$A$GT$9split_off13assert_failed17h332bad6438013b0bE', symObjAddr: 0x25650, symBinAddr: 0x172138, symSize: 0x58 }
  - { offset: 0xFB7, size: 0x8, addend: 0x0, symName: __ZN5alloc6string6String15from_utf8_lossy17hbd691df8875dcb7cE, symObjAddr: 0x248C8, symBinAddr: 0x24FD0, symSize: 0x23C }
  - { offset: 0x152A, size: 0x8, addend: 0x0, symName: __ZN5alloc6string6String4push17hc90b2f4b8c7b034cE, symObjAddr: 0x24D84, symBinAddr: 0x2548C, symSize: 0x140 }
  - { offset: 0x173E, size: 0x8, addend: 0x0, symName: '__ZN58_$LT$alloc..string..String$u20$as$u20$core..fmt..Write$GT$9write_str17he8cb541c497929afE', symObjAddr: 0x24CE4, symBinAddr: 0x253EC, symSize: 0x78 }
  - { offset: 0x1856, size: 0x8, addend: 0x0, symName: '__ZN58_$LT$alloc..string..String$u20$as$u20$core..fmt..Write$GT$10write_char17h1d8d81c60176af3dE', symObjAddr: 0x24D5C, symBinAddr: 0x25464, symSize: 0x18 }
  - { offset: 0x1876, size: 0x8, addend: 0x0, symName: '__ZN60_$LT$alloc..string..String$u20$as$u20$core..clone..Clone$GT$5clone17h57e7ad5d4c9c03cbE', symObjAddr: 0x254C4, symBinAddr: 0x25BCC, symSize: 0xBC }
  - { offset: 0x19DD, size: 0x8, addend: 0x0, symName: '__ZN62_$LT$alloc..string..Drain$u20$as$u20$core..ops..drop..Drop$GT$4drop17hd66455530e07da5eE', symObjAddr: 0x25580, symBinAddr: 0x25C88, symSize: 0x78 }
  - { offset: 0x1B15, size: 0x8, addend: 0x0, symName: '__ZN223_$LT$$LT$alloc..boxed..Box$LT$dyn$u20$core..error..Error$u2b$core..marker..Send$u2b$core..marker..Sync$GT$$u20$as$u20$core..convert..From$LT$alloc..string..String$GT$$GT$..from..StringError$u20$as$u20$core..fmt..Display$GT$3fmt17hb97c558ef06c1e6cE', symObjAddr: 0x24394, symBinAddr: 0x24B54, symSize: 0x10 }
  - { offset: 0x1BB8, size: 0x8, addend: 0x0, symName: '__ZN221_$LT$$LT$alloc..boxed..Box$LT$dyn$u20$core..error..Error$u2b$core..marker..Send$u2b$core..marker..Sync$GT$$u20$as$u20$core..convert..From$LT$alloc..string..String$GT$$GT$..from..StringError$u20$as$u20$core..fmt..Debug$GT$3fmt17h96b92b32bc479b5aE', symObjAddr: 0x243A4, symBinAddr: 0x24B64, symSize: 0x14 }
  - { offset: 0x1BD6, size: 0x8, addend: 0x0, symName: '__ZN221_$LT$$LT$alloc..boxed..Box$LT$dyn$u20$core..error..Error$u2b$core..marker..Send$u2b$core..marker..Sync$GT$$u20$as$u20$core..convert..From$LT$alloc..string..String$GT$$GT$..from..StringError$u20$as$u20$core..fmt..Debug$GT$3fmt17h96b92b32bc479b5aE', symObjAddr: 0x243A4, symBinAddr: 0x24B64, symSize: 0x14 }
  - { offset: 0x1BEB, size: 0x8, addend: 0x0, symName: '__ZN221_$LT$$LT$alloc..boxed..Box$LT$dyn$u20$core..error..Error$u2b$core..marker..Send$u2b$core..marker..Sync$GT$$u20$as$u20$core..convert..From$LT$alloc..string..String$GT$$GT$..from..StringError$u20$as$u20$core..fmt..Debug$GT$3fmt17h96b92b32bc479b5aE', symObjAddr: 0x243A4, symBinAddr: 0x24B64, symSize: 0x14 }
  - { offset: 0x1C00, size: 0x8, addend: 0x0, symName: '__ZN221_$LT$$LT$alloc..boxed..Box$LT$dyn$u20$core..error..Error$u2b$core..marker..Send$u2b$core..marker..Sync$GT$$u20$as$u20$core..convert..From$LT$alloc..string..String$GT$$GT$..from..StringError$u20$as$u20$core..fmt..Debug$GT$3fmt17h96b92b32bc479b5aE', symObjAddr: 0x243A4, symBinAddr: 0x24B64, symSize: 0x14 }
  - { offset: 0x1C15, size: 0x8, addend: 0x0, symName: '__ZN221_$LT$$LT$alloc..boxed..Box$LT$dyn$u20$core..error..Error$u2b$core..marker..Send$u2b$core..marker..Sync$GT$$u20$as$u20$core..convert..From$LT$alloc..string..String$GT$$GT$..from..StringError$u20$as$u20$core..fmt..Debug$GT$3fmt17h96b92b32bc479b5aE', symObjAddr: 0x243A4, symBinAddr: 0x24B64, symSize: 0x14 }
  - { offset: 0x1C2A, size: 0x8, addend: 0x0, symName: '__ZN221_$LT$$LT$alloc..boxed..Box$LT$dyn$u20$core..error..Error$u2b$core..marker..Send$u2b$core..marker..Sync$GT$$u20$as$u20$core..convert..From$LT$alloc..string..String$GT$$GT$..from..StringError$u20$as$u20$core..fmt..Debug$GT$3fmt17h96b92b32bc479b5aE', symObjAddr: 0x243A4, symBinAddr: 0x24B64, symSize: 0x14 }
  - { offset: 0x1C6A, size: 0x8, addend: 0x0, symName: '__ZN72_$LT$$RF$str$u20$as$u20$alloc..ffi..c_str..CString..new..SpecNewImpl$GT$13spec_new_impl17hb57bf8dbe453ac8cE', symObjAddr: 0x244FC, symBinAddr: 0x24C04, symSize: 0x1B0 }
  - { offset: 0x1EC7, size: 0x8, addend: 0x0, symName: __ZN5alloc3ffi5c_str7CString19_from_vec_unchecked17hb720d4c069f70a2dE, symObjAddr: 0x246AC, symBinAddr: 0x24DB4, symSize: 0x164 }
  - { offset: 0x21CB, size: 0x8, addend: 0x0, symName: __ZN5alloc3fmt6format12format_inner17h7e53fb4fd59bb4c4E, symObjAddr: 0x24B04, symBinAddr: 0x2520C, symSize: 0x1C8 }
  - { offset: 0x24B4, size: 0x8, addend: 0x0, symName: '__ZN5alloc3str21_$LT$impl$u20$str$GT$12to_lowercase17hff93b4be288f7685E', symObjAddr: 0x24EC4, symBinAddr: 0x255CC, symSize: 0x600 }
  - { offset: 0x10BF7, size: 0x8, addend: 0x0, symName: _rust_eh_personality, symObjAddr: 0x144FFC, symBinAddr: 0x13A1BC, symSize: 0x54C }
  - { offset: 0x10C54, size: 0x8, addend: 0x0, symName: __ZN3std3sys3pal4unix14abort_internal17hf030b089e56cababE, symObjAddr: 0x1455E4, symBinAddr: 0x13A7A4, symSize: 0xC }
  - { offset: 0x10CAA, size: 0x8, addend: 0x0, symName: '__ZN3std3sys3pal4unix2os6getenv28_$u7b$$u7b$closure$u7d$$u7d$17h4430fc75947731a9E', symObjAddr: 0x164640, symBinAddr: 0x157D4C, symSize: 0x10C }
  - { offset: 0x1100E, size: 0x8, addend: 0x0, symName: __ZN3std3sys3pal4unix17thread_local_dtor13register_dtor17h3c262bc3aa09a3a9E, symObjAddr: 0x1463A8, symBinAddr: 0x13AF34, symSize: 0x13C }
  - { offset: 0x11315, size: 0x8, addend: 0x0, symName: __ZN3std3sys3pal4unix17thread_local_dtor13register_dtor9run_dtors17hf1e2b9dcf105d503E, symObjAddr: 0x146680, symBinAddr: 0x13B20C, symSize: 0xDC }
  - { offset: 0x11738, size: 0x8, addend: 0x0, symName: '__ZN113_$LT$std..sys..pal..unix..locks..pthread_mutex..AllocatedMutex$u20$as$u20$std..sys_common..lazy_box..LazyInit$GT$4init17h465cd279218cf268E', symObjAddr: 0x146B4C, symBinAddr: 0x13B644, symSize: 0x1D0 }
  - { offset: 0x11A23, size: 0x8, addend: 0x0, symName: __ZN3std3sys3pal4unix5locks14pthread_rwlock6RwLock4read17h6fc432953bdcbc90E.13424, symObjAddr: 0x16474C, symBinAddr: 0x157E58, symSize: 0x124 }
  - { offset: 0x11B7A, size: 0x8, addend: 0x0, symName: __ZN3std3sys3pal4unix2fd8FileDesc11read_to_end17h37a1092c12ec3e4aE, symObjAddr: 0x16A48C, symBinAddr: 0x15D68C, symSize: 0x24C }
  - { offset: 0x11FC9, size: 0x8, addend: 0x0, symName: '__ZN69_$LT$std..sys..pal..unix..stdio..Stderr$u20$as$u20$std..io..Write$GT$5write17h834b3f0bbe17e4afE', symObjAddr: 0x16F308, symBinAddr: 0x16218C, symSize: 0x60 }
  - { offset: 0x120AC, size: 0x8, addend: 0x0, symName: '__ZN69_$LT$std..sys..pal..unix..stdio..Stderr$u20$as$u20$std..io..Write$GT$14write_vectored17h6862c35ba4a47326E', symObjAddr: 0x16F368, symBinAddr: 0x1621EC, symSize: 0x60 }
  - { offset: 0x1218F, size: 0x8, addend: 0x0, symName: '__ZN69_$LT$std..sys..pal..unix..stdio..Stderr$u20$as$u20$std..io..Write$GT$17is_write_vectored17h9fd461fbc1792c12E', symObjAddr: 0x16F3C8, symBinAddr: 0x16224C, symSize: 0x8 }
  - { offset: 0x121A8, size: 0x8, addend: 0x0, symName: '__ZN69_$LT$std..sys..pal..unix..stdio..Stderr$u20$as$u20$std..io..Write$GT$5flush17h8c05031c8382948dE', symObjAddr: 0x16F3D0, symBinAddr: 0x162254, symSize: 0x8 }
  - { offset: 0x122E5, size: 0x8, addend: 0x0, symName: __ZN3std3sys3pal4unix2fs4File6open_c17h9522e573fe54b60eE, symObjAddr: 0x1640B0, symBinAddr: 0x157868, symSize: 0x174 }
  - { offset: 0x12420, size: 0x8, addend: 0x0, symName: __ZN3std3sys3pal4unix2fs7readdir17h760c171e55007d12E, symObjAddr: 0x150B5C, symBinAddr: 0x1454DC, symSize: 0x27C }
  - { offset: 0x129F4, size: 0x8, addend: 0x0, symName: '__ZN70_$LT$std..sys..pal..unix..fs..Dir$u20$as$u20$core..ops..drop..Drop$GT$4drop17h1854ccb2203f8929E', symObjAddr: 0x15BEDC, symBinAddr: 0x15078C, symSize: 0xA4 }
  - { offset: 0x12B22, size: 0x8, addend: 0x0, symName: __ZN3std3sys3pal4unix2fs6unlink17h36fefa06d01771c6E, symObjAddr: 0x170ADC, symBinAddr: 0x1638C0, symSize: 0x190 }
  - { offset: 0x12CFC, size: 0x8, addend: 0x0, symName: __ZN3std3sys3pal4unix2fs8set_perm17hb90ecf61b5fe9113E, symObjAddr: 0x170D1C, symBinAddr: 0x163A50, symSize: 0x1B8 }
  - { offset: 0x12EB0, size: 0x8, addend: 0x0, symName: __ZN3std3sys3pal4unix2fs4stat17h865a8a6e8e0e8eb0E, symObjAddr: 0x170FA8, symBinAddr: 0x163C08, symSize: 0x1E0 }
  - { offset: 0x131B2, size: 0x8, addend: 0x0, symName: '__ZN3std3sys3pal4unix7process13process_inner71_$LT$impl$u20$std..sys..pal..unix..process..process_common..Command$GT$7do_exec17hb312cea45a880afdE', symObjAddr: 0x1681CC, symBinAddr: 0x15B410, symSize: 0x324 }
  - { offset: 0x13851, size: 0x8, addend: 0x0, symName: '__ZN3std3sys3pal4unix7process13process_inner71_$LT$impl$u20$std..sys..pal..unix..process..process_common..Command$GT$5spawn17h0d66e2ad45f1b2ccE', symObjAddr: 0x16A7E8, symBinAddr: 0x15D8D8, symSize: 0x1D58 }
  - { offset: 0x18B45, size: 0x8, addend: 0x0, symName: __ZN3std3sys3pal4unix7process14process_common7Command3new17he8baf4dd90abc0e5E, symObjAddr: 0x17122C, symBinAddr: 0x163DE8, symSize: 0x2B8 }
  - { offset: 0x19066, size: 0x8, addend: 0x0, symName: __ZN3std3sys3pal4unix7process14process_common7Command3arg17h0166828252519ad1E, symObjAddr: 0x171640, symBinAddr: 0x1641FC, symSize: 0xE4 }
  - { offset: 0x191E7, size: 0x8, addend: 0x0, symName: __ZN3std3sys3pal4unix7process14process_common5Stdio14to_child_stdio17hb1af6e1bc90fed2aE, symObjAddr: 0x168568, symBinAddr: 0x15B7AC, symSize: 0x13C }
  - { offset: 0x192C2, size: 0x8, addend: 0x0, symName: __ZN3std3sys3pal4unix7process14process_common4os2c17h65e97563a53d637aE, symObjAddr: 0x1714E4, symBinAddr: 0x1640A0, symSize: 0xFC }
  - { offset: 0x19618, size: 0x8, addend: 0x0, symName: __ZN3std3sys3pal4unix7process13process_inner7Process4wait17h6e4e7d4b8b896462E, symObjAddr: 0x16CC9C, symBinAddr: 0x15FB70, symSize: 0x98 }
  - { offset: 0x1971D, size: 0x8, addend: 0x0, symName: __ZN3std3sys3pal4unix4pipe9anon_pipe17h05217e5e110ff2acE, symObjAddr: 0x1686A4, symBinAddr: 0x15B8E8, symSize: 0x148 }
  - { offset: 0x1999A, size: 0x8, addend: 0x0, symName: __ZN3std3sys3pal4unix4pipe8AnonPipe5write17h9b4f7198a213a370E, symObjAddr: 0x16CBA4, symBinAddr: 0x15FA78, symSize: 0x5C }
  - { offset: 0x19AA3, size: 0x8, addend: 0x0, symName: '__ZN3std3sys3pal4unix4weak18DlsymWeak$LT$F$GT$10initialize17h0d73fef9a0b0466aE', symObjAddr: 0x16C5DC, symBinAddr: 0x17DC88, symSize: 0x21C }
  - { offset: 0x19BD5, size: 0x8, addend: 0x0, symName: __ZN3std3sys3pal4unix4rand19hashmap_random_keys17h46cf629cff5cb04cE, symObjAddr: 0x171724, symBinAddr: 0x1642E0, symSize: 0xA8 }
  - { offset: 0x19CDC, size: 0x8, addend: 0x0, symName: __ZN3std3sys3pal4unix6thread6Thread3new12thread_start17hd2f568eb01f7c089E, symObjAddr: 0x1717CC, symBinAddr: 0x164388, symSize: 0x6C }
  - { offset: 0x19F4D, size: 0x8, addend: 0x0, symName: '__ZN3std3sys3pal6common12thread_local10fast_local12Key$LT$T$GT$14try_initialize17hacc0275cb400ff2cE', symObjAddr: 0x167778, symBinAddr: 0x15AA50, symSize: 0xC4 }
  - { offset: 0x1A101, size: 0x8, addend: 0x0, symName: __ZN3std3sys3pal6common12thread_local10fast_local13destroy_value17h9d61c356b193b153E, symObjAddr: 0x1678D0, symBinAddr: 0x15AB14, symSize: 0x3C }
  - { offset: 0x1A3A8, size: 0x8, addend: 0x0, symName: __ZN3std3sys3pal6common14small_c_string24run_with_cstr_allocating17ha4243167b9836a79E, symObjAddr: 0x15BF80, symBinAddr: 0x17C750, symSize: 0xA0 }
  - { offset: 0x1A47F, size: 0x8, addend: 0x0, symName: __ZN3std3sys3pal6common14small_c_string24run_with_cstr_allocating17h1f700782d90308e6E, symObjAddr: 0x163FF8, symBinAddr: 0x17D74C, symSize: 0xB8 }
  - { offset: 0x1A624, size: 0x8, addend: 0x0, symName: __ZN3std3sys3pal6common14small_c_string24run_with_cstr_allocating17h6c78962801cc8e91E, symObjAddr: 0x164594, symBinAddr: 0x17D804, symSize: 0xAC }
  - { offset: 0x1A7C1, size: 0x8, addend: 0x0, symName: __ZN3std3sys3pal6common14small_c_string24run_with_cstr_allocating17hd79d8cd4b790afefE, symObjAddr: 0x165A2C, symBinAddr: 0x17D9C0, symSize: 0xB8 }
  - { offset: 0x1A8ED, size: 0x8, addend: 0x0, symName: __ZN3std3sys3pal6common14small_c_string24run_with_cstr_allocating17h2ca1edab99ebdfe3E, symObjAddr: 0x16651C, symBinAddr: 0x17DA78, symSize: 0x114 }
  - { offset: 0x1AAC7, size: 0x8, addend: 0x0, symName: __ZN3std3sys3pal6common14small_c_string24run_with_cstr_allocating17h86190b24255e0c04E, symObjAddr: 0x170C6C, symBinAddr: 0x17DF94, symSize: 0xB0 }
  - { offset: 0x1ABF3, size: 0x8, addend: 0x0, symName: __ZN3std3sys3pal6common14small_c_string24run_with_cstr_allocating17h88b8af469ef7aeb4E, symObjAddr: 0x170ED4, symBinAddr: 0x17E044, symSize: 0xD4 }
  - { offset: 0x1ACF7, size: 0x8, addend: 0x0, symName: __ZN3std3sys3pal6common14small_c_string24run_with_cstr_allocating17h6ebb598b1889b7d5E, symObjAddr: 0x171188, symBinAddr: 0x17E118, symSize: 0xA4 }
  - { offset: 0x1ADF4, size: 0x8, addend: 0x0, symName: _rust_eh_personality, symObjAddr: 0x144FFC, symBinAddr: 0x13A1BC, symSize: 0x54C }
  - { offset: 0x1B201, size: 0x8, addend: 0x0, symName: '__ZN3std3sys11personality3gcc14find_eh_action28_$u7b$$u7b$closure$u7d$$u7d$17h29d0cf3bde2e0f5bE', symObjAddr: 0x147780, symBinAddr: 0x13C23C, symSize: 0xC }
  - { offset: 0x1B221, size: 0x8, addend: 0x0, symName: '__ZN3std3sys11personality3gcc14find_eh_action28_$u7b$$u7b$closure$u7d$$u7d$17hcef79570cbd743d6E', symObjAddr: 0x147798, symBinAddr: 0x13C254, symSize: 0xC }
  - { offset: 0x1B3D3, size: 0x8, addend: 0x0, symName: __ZN3std5alloc24default_alloc_error_hook17h344abf140bf49073E, symObjAddr: 0x16ED68, symBinAddr: 0x161BEC, symSize: 0x154 }
  - { offset: 0x1B5D5, size: 0x8, addend: 0x0, symName: __ZN3std5alloc8rust_oom17h1a78aa7af591e1cdE, symObjAddr: 0x171838, symBinAddr: 0x1643F4, symSize: 0x10 }
  - { offset: 0x1B5F4, size: 0x8, addend: 0x0, symName: ___rg_oom, symObjAddr: 0x171848, symBinAddr: 0x164404, symSize: 0x18 }
  - { offset: 0x1B730, size: 0x8, addend: 0x0, symName: __ZN3std2io5error14repr_bitpacked11decode_repr17hf2877358693bc878E, symObjAddr: 0x16C7F8, symBinAddr: 0x15F6CC, symSize: 0x3AC }
  - { offset: 0x1B7A0, size: 0x8, addend: 0x0, symName: '__ZN60_$LT$std..io..error..Error$u20$as$u20$core..fmt..Display$GT$3fmt17hce2aa973c06167bfE', symObjAddr: 0x1455F0, symBinAddr: 0x13A7B0, symSize: 0x530 }
  - { offset: 0x1BCC4, size: 0x8, addend: 0x0, symName: '__ZN58_$LT$std..io..error..Error$u20$as$u20$core..fmt..Debug$GT$3fmt17hccf2d6746a593e85E', symObjAddr: 0x146D1C, symBinAddr: 0x13B814, symSize: 0x628 }
  - { offset: 0x1C2C2, size: 0x8, addend: 0x0, symName: '__ZN62_$LT$std..io..error..ErrorKind$u20$as$u20$core..fmt..Debug$GT$3fmt17hcffd2933bac5dd18E', symObjAddr: 0x147368, symBinAddr: 0x13BE60, symSize: 0x30 }
  - { offset: 0x1C309, size: 0x8, addend: 0x0, symName: '__ZN60_$LT$std..io..error..Error$u20$as$u20$core..error..Error$GT$11description17h7ce0050fc757a741E', symObjAddr: 0x166630, symBinAddr: 0x159A60, symSize: 0x1F4 }
  - { offset: 0x1C3A6, size: 0x8, addend: 0x0, symName: '__ZN60_$LT$std..io..error..Error$u20$as$u20$core..error..Error$GT$5cause17he7c9975c42a5ba61E', symObjAddr: 0x166824, symBinAddr: 0x159C54, symSize: 0x40 }
  - { offset: 0x1C3C4, size: 0x8, addend: 0x0, symName: '__ZN60_$LT$std..io..error..Error$u20$as$u20$core..error..Error$GT$5cause17he7c9975c42a5ba61E', symObjAddr: 0x166824, symBinAddr: 0x159C54, symSize: 0x40 }
  - { offset: 0x1C3EB, size: 0x8, addend: 0x0, symName: '__ZN60_$LT$std..io..error..Error$u20$as$u20$core..error..Error$GT$6source17h9b50f0237891851dE', symObjAddr: 0x166864, symBinAddr: 0x159C94, symSize: 0x40 }
  - { offset: 0x1C409, size: 0x8, addend: 0x0, symName: '__ZN60_$LT$std..io..error..Error$u20$as$u20$core..error..Error$GT$6source17h9b50f0237891851dE', symObjAddr: 0x166864, symBinAddr: 0x159C94, symSize: 0x40 }
  - { offset: 0x1C437, size: 0x8, addend: 0x0, symName: __ZN3std2io5Write9write_fmt17h2ff514dfe799c882E, symObjAddr: 0x14658C, symBinAddr: 0x13B118, symSize: 0xF4 }
  - { offset: 0x1C710, size: 0x8, addend: 0x0, symName: '__ZN80_$LT$std..io..Write..write_fmt..Adapter$LT$T$GT$$u20$as$u20$core..fmt..Write$GT$9write_str17hee37b82a9ec09042E', symObjAddr: 0x147564, symBinAddr: 0x13C020, symSize: 0x138 }
  - { offset: 0x1CAAD, size: 0x8, addend: 0x0, symName: '__ZN80_$LT$std..io..Write..write_fmt..Adapter$LT$T$GT$$u20$as$u20$core..fmt..Write$GT$9write_str17ha0ce6e6ef3d93b30E', symObjAddr: 0x167104, symBinAddr: 0x15A3DC, symSize: 0xC0 }
  - { offset: 0x1CD51, size: 0x8, addend: 0x0, symName: '__ZN80_$LT$std..io..Write..write_fmt..Adapter$LT$T$GT$$u20$as$u20$core..fmt..Write$GT$9write_str17h9e88275778a881fdE', symObjAddr: 0x1673CC, symBinAddr: 0x15A6A4, symSize: 0x108 }
  - { offset: 0x1D21A, size: 0x8, addend: 0x0, symName: '__ZN80_$LT$std..io..Write..write_fmt..Adapter$LT$T$GT$$u20$as$u20$core..fmt..Write$GT$9write_str17h7ad30792b4932522E', symObjAddr: 0x167B78, symBinAddr: 0x15ADBC, symSize: 0x78 }
  - { offset: 0x1D347, size: 0x8, addend: 0x0, symName: __ZN3std2io5Write18write_all_vectored17hb9840e6d710fb82bE, symObjAddr: 0x166A2C, symBinAddr: 0x159E5C, symSize: 0x1C4 }
  - { offset: 0x1D5F9, size: 0x8, addend: 0x0, symName: __ZN3std2io5Write9write_all17h0e4a16fdfcd80afcE, symObjAddr: 0x16F3D8, symBinAddr: 0x16225C, symSize: 0xA8 }
  - { offset: 0x1D6FE, size: 0x8, addend: 0x0, symName: __ZN3std2io5Write18write_all_vectored17he47a84ff689681f4E, symObjAddr: 0x16F89C, symBinAddr: 0x162720, symSize: 0x294 }
  - { offset: 0x1DB0C, size: 0x8, addend: 0x0, symName: __ZN3std2io5Write9write_fmt17h20132153a5540a07E, symObjAddr: 0x16FB30, symBinAddr: 0x1629B4, symSize: 0xF4 }
  - { offset: 0x1DE26, size: 0x8, addend: 0x0, symName: '__ZN3std2io8buffered9bufwriter18BufWriter$LT$W$GT$9flush_buf17hf21d75150dc0628eE', symObjAddr: 0x146A18, symBinAddr: 0x13B510, symSize: 0x134 }
  - { offset: 0x1E1EC, size: 0x8, addend: 0x0, symName: '__ZN3std2io8buffered9bufwriter18BufWriter$LT$W$GT$14write_all_cold17hf28f6876c1db690dE', symObjAddr: 0x167070, symBinAddr: 0x17DBF4, symSize: 0x94 }
  - { offset: 0x1E396, size: 0x8, addend: 0x0, symName: '__ZN60_$LT$std..io..stdio..StdoutRaw$u20$as$u20$std..io..Write$GT$9write_all17he8888b5c2313a0c9E', symObjAddr: 0x1668A4, symBinAddr: 0x159CD4, symSize: 0xC4 }
  - { offset: 0x1E516, size: 0x8, addend: 0x0, symName: '__ZN60_$LT$std..io..stdio..StderrRaw$u20$as$u20$std..io..Write$GT$9write_all17hcad32b44ea99fd96E', symObjAddr: 0x166968, symBinAddr: 0x159D98, symSize: 0xC4 }
  - { offset: 0x1E691, size: 0x8, addend: 0x0, symName: '__ZN61_$LT$std..io..stdio..StdoutLock$u20$as$u20$std..io..Write$GT$9write_all17h43535bc98e60559aE', symObjAddr: 0x166DC8, symBinAddr: 0x15A134, symSize: 0x2A8 }
  - { offset: 0x1EDC6, size: 0x8, addend: 0x0, symName: __ZN3std2io5stdio18set_output_capture17h97cc1b98daddeaf0E, symObjAddr: 0x167698, symBinAddr: 0x15A970, symSize: 0xE0 }
  - { offset: 0x1F077, size: 0x8, addend: 0x0, symName: __ZN3std2io5stdio31print_to_buffer_if_capture_used17h8dbd706bb2545578E, symObjAddr: 0x16790C, symBinAddr: 0x15AB50, symSize: 0x26C }
  - { offset: 0x1F904, size: 0x8, addend: 0x0, symName: __ZN3std2io5stdio6_print17h82ef3dad5cb0e924E, symObjAddr: 0x167D20, symBinAddr: 0x15AF64, symSize: 0x264 }
  - { offset: 0x1FED4, size: 0x8, addend: 0x0, symName: __ZN3std2io5stdio7_eprint17h0175f1b40d2517acE, symObjAddr: 0x167F84, symBinAddr: 0x15B1C8, symSize: 0x248 }
  - { offset: 0x203C8, size: 0x8, addend: 0x0, symName: __ZN3std2io19default_read_to_end16small_probe_read17h2ee5543a4dfef7e6E, symObjAddr: 0x165104, symBinAddr: 0x158700, symSize: 0x110 }
  - { offset: 0x2066C, size: 0x8, addend: 0x0, symName: '__ZN3std2io5impls74_$LT$impl$u20$std..io..Write$u20$for$u20$alloc..vec..Vec$LT$u8$C$A$GT$$GT$5write17h9c31633191b39b69E', symObjAddr: 0x16F630, symBinAddr: 0x1624B4, symSize: 0x84 }
  - { offset: 0x20776, size: 0x8, addend: 0x0, symName: '__ZN3std2io5impls74_$LT$impl$u20$std..io..Write$u20$for$u20$alloc..vec..Vec$LT$u8$C$A$GT$$GT$14write_vectored17h79b9fd5a31bc7d0fE', symObjAddr: 0x16F6B4, symBinAddr: 0x162538, symSize: 0x160 }
  - { offset: 0x20981, size: 0x8, addend: 0x0, symName: '__ZN3std2io5impls74_$LT$impl$u20$std..io..Write$u20$for$u20$alloc..vec..Vec$LT$u8$C$A$GT$$GT$17is_write_vectored17ha7f2478328aeff52E', symObjAddr: 0x16F814, symBinAddr: 0x162698, symSize: 0x8 }
  - { offset: 0x2099B, size: 0x8, addend: 0x0, symName: '__ZN3std2io5impls74_$LT$impl$u20$std..io..Write$u20$for$u20$alloc..vec..Vec$LT$u8$C$A$GT$$GT$5flush17h234a8d3d729d472dE', symObjAddr: 0x16F81C, symBinAddr: 0x1626A0, symSize: 0x8 }
  - { offset: 0x209B5, size: 0x8, addend: 0x0, symName: '__ZN3std2io5impls74_$LT$impl$u20$std..io..Write$u20$for$u20$alloc..vec..Vec$LT$u8$C$A$GT$$GT$9write_all17haadbb4e59ba63bb6E', symObjAddr: 0x16F824, symBinAddr: 0x1626A8, symSize: 0x78 }
  - { offset: 0x20B05, size: 0x8, addend: 0x0, symName: __ZN3std6thread6Thread3new17hf368a42d2b40e8b4E, symObjAddr: 0x145B20, symBinAddr: 0x13ACE0, symSize: 0x134 }
  - { offset: 0x20F87, size: 0x8, addend: 0x0, symName: '__ZN68_$LT$std..thread..local..AccessError$u20$as$u20$core..fmt..Debug$GT$3fmt17hae0f9dedfcb1b63cE', symObjAddr: 0x147398, symBinAddr: 0x13BE90, symSize: 0x18 }
  - { offset: 0x20FA4, size: 0x8, addend: 0x0, symName: '__ZN68_$LT$std..thread..local..AccessError$u20$as$u20$core..fmt..Debug$GT$3fmt17hae0f9dedfcb1b63cE', symObjAddr: 0x147398, symBinAddr: 0x13BE90, symSize: 0x18 }
  - { offset: 0x20FB8, size: 0x8, addend: 0x0, symName: '__ZN68_$LT$std..thread..local..AccessError$u20$as$u20$core..fmt..Debug$GT$3fmt17hae0f9dedfcb1b63cE', symObjAddr: 0x147398, symBinAddr: 0x13BE90, symSize: 0x18 }
  - { offset: 0x20FCD, size: 0x8, addend: 0x0, symName: '__ZN68_$LT$std..thread..local..AccessError$u20$as$u20$core..fmt..Debug$GT$3fmt17hae0f9dedfcb1b63cE', symObjAddr: 0x147398, symBinAddr: 0x13BE90, symSize: 0x18 }
  - { offset: 0x2102C, size: 0x8, addend: 0x0, symName: __ZN3std6thread8ThreadId3new9exhausted17h813ac54e230408b4E, symObjAddr: 0x147464, symBinAddr: 0x17C5D8, symSize: 0x3C }
  - { offset: 0x21098, size: 0x8, addend: 0x0, symName: __ZN3std10sys_common4once5queue4Once4call17hb5688d7c7492fb71E, symObjAddr: 0x145C54, symBinAddr: 0x17BF10, symSize: 0x634 }
  - { offset: 0x220BB, size: 0x8, addend: 0x0, symName: '__ZN83_$LT$std..sys_common..once..queue..WaiterQueue$u20$as$u20$core..ops..drop..Drop$GT$4drop17h59fdce50b970d1aeE', symObjAddr: 0x146288, symBinAddr: 0x13AE14, symSize: 0xCC }
  - { offset: 0x222C3, size: 0x8, addend: 0x0, symName: __ZN3std10sys_common11thread_info11THREAD_INFO7__getit7destroy17h8beffd5c6bde4c9fE, symObjAddr: 0x146354, symBinAddr: 0x13AEE0, symSize: 0x54 }
  - { offset: 0x2249D, size: 0x8, addend: 0x0, symName: '__ZN3std10sys_common8lazy_box16LazyBox$LT$T$GT$10initialize17h09d26250fa083625E', symObjAddr: 0x1469C4, symBinAddr: 0x17C584, symSize: 0x54 }
  - { offset: 0x225AD, size: 0x8, addend: 0x0, symName: '__ZN3std10sys_common8lazy_box16LazyBox$LT$T$GT$10initialize17ha78d2e68408648bbE', symObjAddr: 0x164870, symBinAddr: 0x17D8B0, symSize: 0x110 }
  - { offset: 0x22801, size: 0x8, addend: 0x0, symName: __ZN3std10sys_common9backtrace15output_filename17h5a37d71a623b3f4fE, symObjAddr: 0x147A1C, symBinAddr: 0x13C4A8, symSize: 0x348 }
  - { offset: 0x22AAF, size: 0x8, addend: 0x0, symName: '__ZN3std10sys_common9backtrace10_print_fmt28_$u7b$$u7b$closure$u7d$$u7d$17he0b51f6da932a1ddE', symObjAddr: 0x164FD8, symBinAddr: 0x1585D4, symSize: 0x24 }
  - { offset: 0x22AD7, size: 0x8, addend: 0x0, symName: '__ZN3std10sys_common9backtrace10_print_fmt28_$u7b$$u7b$closure$u7d$$u7d$17hfc008ed6f9cd38b8E', symObjAddr: 0x16D98C, symBinAddr: 0x160810, symSize: 0x124 }
  - { offset: 0x22BE9, size: 0x8, addend: 0x0, symName: '__ZN3std10sys_common9backtrace10_print_fmt28_$u7b$$u7b$closure$u7d$$u7d$28_$u7b$$u7b$closure$u7d$$u7d$17h325eddc1eaa93b8eE', symObjAddr: 0x16DAB0, symBinAddr: 0x160934, symSize: 0x25C }
  - { offset: 0x22E39, size: 0x8, addend: 0x0, symName: '__ZN91_$LT$std..sys_common..backtrace.._print..DisplayBacktrace$u20$as$u20$core..fmt..Display$GT$3fmt17h3be43c6214e69043E', symObjAddr: 0x16D5E0, symBinAddr: 0x160464, symSize: 0x3A8 }
  - { offset: 0x23914, size: 0x8, addend: 0x0, symName: __ZN3std10sys_common9backtrace5print17h722d6ff0889d39c2E, symObjAddr: 0x16F4E8, symBinAddr: 0x16236C, symSize: 0x148 }
  - { offset: 0x23B75, size: 0x8, addend: 0x0, symName: __ZN3std10sys_common9backtrace26__rust_end_short_backtrace17hbce128a2ff88406eE, symObjAddr: 0x16FCF8, symBinAddr: 0x162ADC, symSize: 0xC }
  - { offset: 0x23BE7, size: 0x8, addend: 0x0, symName: __ZN3std10sys_common7process10CommandEnv3set17h279e4b90d5f275cfE, symObjAddr: 0x16E17C, symBinAddr: 0x161000, symSize: 0xB9C }
  - { offset: 0x25ED5, size: 0x8, addend: 0x0, symName: '__ZN79_$LT$std..backtrace_rs..symbolize..SymbolName$u20$as$u20$core..fmt..Display$GT$3fmt17h8253b4a0a8cae2b3E', symObjAddr: 0x1477D4, symBinAddr: 0x13C260, symSize: 0x248 }
  - { offset: 0x2621D, size: 0x8, addend: 0x0, symName: __ZN3std12backtrace_rs9symbolize5gimli5macho6Object5parse17h5c4b44f993a0aff7E, symObjAddr: 0x14C89C, symBinAddr: 0x14121C, symSize: 0x13B4 }
  - { offset: 0x282DB, size: 0x8, addend: 0x0, symName: __ZN3std12backtrace_rs9symbolize5gimli5macho6Object7section17h48a5f385722f0f43E, symObjAddr: 0x15C020, symBinAddr: 0x150830, symSize: 0x2A0 }
  - { offset: 0x286E3, size: 0x8, addend: 0x0, symName: __ZN3std12backtrace_rs9symbolize5gimli7resolve17h54f249539aacf730E, symObjAddr: 0x1489AC, symBinAddr: 0x13D40C, symSize: 0x36D4 }
  - { offset: 0x2E832, size: 0x8, addend: 0x0, symName: __ZN3std12backtrace_rs9symbolize5gimli4mmap17hef3750e4e0d7e748E, symObjAddr: 0x14C258, symBinAddr: 0x140BD8, symSize: 0x29C }
  - { offset: 0x2EE2E, size: 0x8, addend: 0x0, symName: __ZN3std12backtrace_rs9symbolize5gimli7Context3new17h43476bf272de3505E, symObjAddr: 0x14DC50, symBinAddr: 0x1425D0, symSize: 0x2F0C }
  - { offset: 0x343D2, size: 0x8, addend: 0x0, symName: __ZN3std12backtrace_rs9symbolize5gimli7Context11find_frames17h8fc17fe9f2022414E, symObjAddr: 0x150FCC, symBinAddr: 0x14594C, symSize: 0x3F4 }
  - { offset: 0x3496B, size: 0x8, addend: 0x0, symName: __ZN3std12backtrace_rs9symbolize6Symbol4name17h9c2276e0d7d7b917E, symObjAddr: 0x164224, symBinAddr: 0x1579DC, symSize: 0xE4 }
  - { offset: 0x34ADC, size: 0x8, addend: 0x0, symName: __ZN3std12backtrace_rs9backtrace9libunwind5trace8trace_fn17h88fd9041a4ee7e57E, symObjAddr: 0x164558, symBinAddr: 0x157D10, symSize: 0x3C }
  - { offset: 0x34B5A, size: 0x8, addend: 0x0, symName: __ZN3std12backtrace_rs5print17BacktraceFrameFmt21print_raw_with_column17h6d3504f82c4efe26E, symObjAddr: 0x1649B4, symBinAddr: 0x157FB0, symSize: 0x540 }
  - { offset: 0x34EA0, size: 0x8, addend: 0x0, symName: __ZN3std4path4Path5_join17h0a9fc989b8ba8469E, symObjAddr: 0x150E58, symBinAddr: 0x1457D8, symSize: 0x174 }
  - { offset: 0x352FE, size: 0x8, addend: 0x0, symName: __ZN3std4path4Path6is_dir17h8a856f2b45f02477E, symObjAddr: 0x166458, symBinAddr: 0x15999C, symSize: 0xC4 }
  - { offset: 0x356C9, size: 0x8, addend: 0x0, symName: __ZN3std4path10Components7as_path17h3d9711c59255ad64E, symObjAddr: 0x1481E0, symBinAddr: 0x13CC6C, symSize: 0x514 }
  - { offset: 0x35B20, size: 0x8, addend: 0x0, symName: __ZN3std4path10Components25parse_next_component_back17h4ff5d8499aad7d62E, symObjAddr: 0x1486F4, symBinAddr: 0x13D180, symSize: 0x114 }
  - { offset: 0x35C95, size: 0x8, addend: 0x0, symName: __ZN3std4path10Components15len_before_body17h04864cb9570119caE, symObjAddr: 0x148808, symBinAddr: 0x13D294, symSize: 0x178 }
  - { offset: 0x35CAC, size: 0x8, addend: 0x0, symName: __ZN3std4path10Components15len_before_body17h04864cb9570119caE, symObjAddr: 0x148808, symBinAddr: 0x13D294, symSize: 0x178 }
  - { offset: 0x35CC1, size: 0x8, addend: 0x0, symName: __ZN3std4path10Components15len_before_body17h04864cb9570119caE, symObjAddr: 0x148808, symBinAddr: 0x13D294, symSize: 0x178 }
  - { offset: 0x35ECA, size: 0x8, addend: 0x0, symName: '__ZN80_$LT$std..path..Components$u20$as$u20$core..iter..traits..iterator..Iterator$GT$4next17h928b2213444341b6E', symObjAddr: 0x147D64, symBinAddr: 0x13C7F0, symSize: 0x370 }
  - { offset: 0x36119, size: 0x8, addend: 0x0, symName: '__ZN61_$LT$std..path..Component$u20$as$u20$core..cmp..PartialEq$GT$2eq17h640625ea49b6d5c5E', symObjAddr: 0x1480D4, symBinAddr: 0x13CB60, symSize: 0x10C }
  - { offset: 0x36228, size: 0x8, addend: 0x0, symName: '__ZN95_$LT$std..path..Components$u20$as$u20$core..iter..traits..double_ended..DoubleEndedIterator$GT$9next_back17ha27eb37c664e35b8E', symObjAddr: 0x14C594, symBinAddr: 0x140F14, symSize: 0x308 }
  - { offset: 0x3635D, size: 0x8, addend: 0x0, symName: '__ZN55_$LT$std..path..PathBuf$u20$as$u20$core..fmt..Debug$GT$3fmt17h0e5e53e40798f8b1E', symObjAddr: 0x164FFC, symBinAddr: 0x1585F8, symSize: 0x14 }
  - { offset: 0x3637B, size: 0x8, addend: 0x0, symName: '__ZN55_$LT$std..path..PathBuf$u20$as$u20$core..fmt..Debug$GT$3fmt17h0e5e53e40798f8b1E', symObjAddr: 0x164FFC, symBinAddr: 0x1585F8, symSize: 0x14 }
  - { offset: 0x36390, size: 0x8, addend: 0x0, symName: '__ZN55_$LT$std..path..PathBuf$u20$as$u20$core..fmt..Debug$GT$3fmt17h0e5e53e40798f8b1E', symObjAddr: 0x164FFC, symBinAddr: 0x1585F8, symSize: 0x14 }
  - { offset: 0x363A5, size: 0x8, addend: 0x0, symName: '__ZN55_$LT$std..path..PathBuf$u20$as$u20$core..fmt..Debug$GT$3fmt17h0e5e53e40798f8b1E', symObjAddr: 0x164FFC, symBinAddr: 0x1585F8, symSize: 0x14 }
  - { offset: 0x363BA, size: 0x8, addend: 0x0, symName: '__ZN55_$LT$std..path..PathBuf$u20$as$u20$core..fmt..Debug$GT$3fmt17h0e5e53e40798f8b1E', symObjAddr: 0x164FFC, symBinAddr: 0x1585F8, symSize: 0x14 }
  - { offset: 0x363CF, size: 0x8, addend: 0x0, symName: '__ZN55_$LT$std..path..PathBuf$u20$as$u20$core..fmt..Debug$GT$3fmt17h0e5e53e40798f8b1E', symObjAddr: 0x164FFC, symBinAddr: 0x1585F8, symSize: 0x14 }
  - { offset: 0x363E4, size: 0x8, addend: 0x0, symName: '__ZN55_$LT$std..path..PathBuf$u20$as$u20$core..fmt..Debug$GT$3fmt17h0e5e53e40798f8b1E', symObjAddr: 0x164FFC, symBinAddr: 0x1585F8, symSize: 0x14 }
  - { offset: 0x363F9, size: 0x8, addend: 0x0, symName: '__ZN55_$LT$std..path..PathBuf$u20$as$u20$core..fmt..Debug$GT$3fmt17h0e5e53e40798f8b1E', symObjAddr: 0x164FFC, symBinAddr: 0x1585F8, symSize: 0x14 }
  - { offset: 0x3640D, size: 0x8, addend: 0x0, symName: '__ZN55_$LT$std..path..PathBuf$u20$as$u20$core..fmt..Debug$GT$3fmt17h0e5e53e40798f8b1E', symObjAddr: 0x164FFC, symBinAddr: 0x1585F8, symSize: 0x14 }
  - { offset: 0x36422, size: 0x8, addend: 0x0, symName: '__ZN55_$LT$std..path..PathBuf$u20$as$u20$core..fmt..Debug$GT$3fmt17h0e5e53e40798f8b1E', symObjAddr: 0x164FFC, symBinAddr: 0x1585F8, symSize: 0x14 }
  - { offset: 0x366FA, size: 0x8, addend: 0x0, symName: __ZN3std9panicking11panic_count17is_zero_slow_path17h11856632b9504fb9E, symObjAddr: 0x148980, symBinAddr: 0x17C644, symSize: 0x2C }
  - { offset: 0x367FD, size: 0x8, addend: 0x0, symName: __ZN3std9panicking3try7cleanup17hf5ffaf2c26fcd4e8E, symObjAddr: 0x16FC24, symBinAddr: 0x17DEF4, symSize: 0xA0 }
  - { offset: 0x369E5, size: 0x8, addend: 0x0, symName: _rust_panic, symObjAddr: 0x16A200, symBinAddr: 0x15D400, symSize: 0x58 }
  - { offset: 0x36A11, size: 0x8, addend: 0x0, symName: ___rust_drop_panic, symObjAddr: 0x16EEBC, symBinAddr: 0x161D40, symSize: 0xFC }
  - { offset: 0x36D0A, size: 0x8, addend: 0x0, symName: ___rust_foreign_exception, symObjAddr: 0x16EFB8, symBinAddr: 0x161E3C, symSize: 0xFC }
  - { offset: 0x37008, size: 0x8, addend: 0x0, symName: '__ZN3std9panicking12default_hook28_$u7b$$u7b$closure$u7d$$u7d$17hd7f9985c1b9ae0aaE', symObjAddr: 0x16F0B4, symBinAddr: 0x161F38, symSize: 0x254 }
  - { offset: 0x37493, size: 0x8, addend: 0x0, symName: _rust_begin_unwind, symObjAddr: 0x16FCC4, symBinAddr: 0x162AA8, symSize: 0x34 }
  - { offset: 0x37512, size: 0x8, addend: 0x0, symName: '__ZN3std9panicking19begin_panic_handler28_$u7b$$u7b$closure$u7d$$u7d$17h67f4ee7322151c3cE', symObjAddr: 0x16FD04, symBinAddr: 0x162AE8, symSize: 0xCC }
  - { offset: 0x376C4, size: 0x8, addend: 0x0, symName: '__ZN102_$LT$std..panicking..begin_panic_handler..FormatStringPayload$u20$as$u20$core..panic..PanicPayload$GT$8take_box17h3b29f827beeb2ee4E', symObjAddr: 0x170750, symBinAddr: 0x163534, symSize: 0xE0 }
  - { offset: 0x37925, size: 0x8, addend: 0x0, symName: '__ZN102_$LT$std..panicking..begin_panic_handler..FormatStringPayload$u20$as$u20$core..panic..PanicPayload$GT$3get17h4f8239b43824bc94E', symObjAddr: 0x170830, symBinAddr: 0x163614, symSize: 0x8C }
  - { offset: 0x37A61, size: 0x8, addend: 0x0, symName: '__ZN99_$LT$std..panicking..begin_panic_handler..StaticStrPayload$u20$as$u20$core..panic..PanicPayload$GT$8take_box17h6c700d2f3bd7026bE', symObjAddr: 0x170A88, symBinAddr: 0x16386C, symSize: 0x48 }
  - { offset: 0x37B15, size: 0x8, addend: 0x0, symName: '__ZN99_$LT$std..panicking..begin_panic_handler..StaticStrPayload$u20$as$u20$core..panic..PanicPayload$GT$3get17ha53b2707f4b8008eE', symObjAddr: 0x170AD0, symBinAddr: 0x1638B4, symSize: 0xC }
  - { offset: 0x37B3D, size: 0x8, addend: 0x0, symName: __ZN3std9panicking20rust_panic_with_hook17h401df0236a0e7daeE, symObjAddr: 0x16FDD0, symBinAddr: 0x162BB4, symSize: 0x980 }
  - { offset: 0x39425, size: 0x8, addend: 0x0, symName: __ZN3std2fs11OpenOptions5_open17h0ba008c0cbd0a7ddE, symObjAddr: 0x1656C4, symBinAddr: 0x158CC0, symSize: 0x1B0 }
  - { offset: 0x39603, size: 0x8, addend: 0x0, symName: '__ZN47_$LT$std..fs..File$u20$as$u20$std..io..Read$GT$14read_to_string17hd0c39eac49645a23E', symObjAddr: 0x165214, symBinAddr: 0x158810, symSize: 0x4B0 }
  - { offset: 0x3A001, size: 0x8, addend: 0x0, symName: __ZN3std2fs10DirBuilder7_create17h23a7ec46d5c1f3f9E, symObjAddr: 0x165874, symBinAddr: 0x158E70, symSize: 0x1B8 }
  - { offset: 0x3A1C3, size: 0x8, addend: 0x0, symName: __ZN3std2fs10DirBuilder14create_dir_all17hc07acd2ee55af38bE, symObjAddr: 0x165AE4, symBinAddr: 0x159028, symSize: 0x72C }
  - { offset: 0x3AD7A, size: 0x8, addend: 0x0, symName: __ZN3std2fs8metadata17h8aa93728430d8677E, symObjAddr: 0x166210, symBinAddr: 0x159754, symSize: 0x248 }
  - { offset: 0x3B014, size: 0x8, addend: 0x0, symName: __ZN3std3env4_var17hc84cbc46c555cd6cE, symObjAddr: 0x164308, symBinAddr: 0x157AC0, symSize: 0x250 }
  - { offset: 0x3B615, size: 0x8, addend: 0x0, symName: '__ZN3std4sync4once4Once15call_once_force28_$u7b$$u7b$closure$u7d$$u7d$17hc70abd05f8aabf3eE', symObjAddr: 0x166D20, symBinAddr: 0x15A08C, symSize: 0x6C }
  - { offset: 0x3B7AF, size: 0x8, addend: 0x0, symName: '__ZN3std4sync9once_lock17OnceLock$LT$T$GT$10initialize17hcf719edea9deea4fE', symObjAddr: 0x166C4C, symBinAddr: 0x17DB8C, symSize: 0x68 }
  - { offset: 0x3B7DA, size: 0x8, addend: 0x0, symName: '__ZN3std4sync9once_lock17OnceLock$LT$T$GT$10initialize17hcf719edea9deea4fE', symObjAddr: 0x166C4C, symBinAddr: 0x17DB8C, symSize: 0x68 }
  - { offset: 0x3B7EE, size: 0x8, addend: 0x0, symName: '__ZN3std4sync9once_lock17OnceLock$LT$T$GT$10initialize17hcf719edea9deea4fE', symObjAddr: 0x166C4C, symBinAddr: 0x17DB8C, symSize: 0x68 }
  - { offset: 0x3B802, size: 0x8, addend: 0x0, symName: '__ZN3std4sync9once_lock17OnceLock$LT$T$GT$10initialize17hcf719edea9deea4fE', symObjAddr: 0x166C4C, symBinAddr: 0x17DB8C, symSize: 0x68 }
  - { offset: 0x3B932, size: 0x8, addend: 0x0, symName: __ZN3std5panic19get_backtrace_style17ha53c895e7ff260fcE, symObjAddr: 0x16A258, symBinAddr: 0x15D458, symSize: 0x234 }
  - { offset: 0x3BF54, size: 0x8, addend: 0x0, symName: __ZN3std7process7Command6output17hc3a3b0acc8d95e04E, symObjAddr: 0x16D0B0, symBinAddr: 0x15FF40, symSize: 0x510 }
  - { offset: 0x3C804, size: 0x8, addend: 0x0, symName: __ZN3std7process5abort17hcc3ecfe0fd90257aE, symObjAddr: 0x16D5D4, symBinAddr: 0x17DEE8, symSize: 0xC }
  - { offset: 0x3CD1A, size: 0x8, addend: 0x0, symName: '__ZN4core3ptr81drop_in_place$LT$core..result..Result$LT$$LP$$RP$$C$std..io..error..Error$GT$$GT$17hfab2fb82cbea15bcE', symObjAddr: 0x145548, symBinAddr: 0x13A708, symSize: 0x9C }
  - { offset: 0x3D999, size: 0x8, addend: 0x0, symName: '__ZN4core3ptr44drop_in_place$LT$std..thread..PanicGuard$GT$17h9147861615f16944E', symObjAddr: 0x146550, symBinAddr: 0x13B0DC, symSize: 0x3C }
  - { offset: 0x3DA95, size: 0x8, addend: 0x0, symName: '__ZN4core3ptr42drop_in_place$LT$alloc..string..String$GT$17h49b12519c9804eb5E', symObjAddr: 0x147354, symBinAddr: 0x13BE4C, symSize: 0x14 }
  - { offset: 0x3DAAC, size: 0x8, addend: 0x0, symName: '__ZN4core3ptr42drop_in_place$LT$alloc..string..String$GT$17h49b12519c9804eb5E', symObjAddr: 0x147354, symBinAddr: 0x13BE4C, symSize: 0x14 }
  - { offset: 0x3DD04, size: 0x8, addend: 0x0, symName: '__ZN4core3ptr88drop_in_place$LT$std..io..Write..write_fmt..Adapter$LT$alloc..vec..Vec$LT$u8$GT$$GT$$GT$17hccb982b9d846d981E', symObjAddr: 0x1474C8, symBinAddr: 0x13BF84, symSize: 0x9C }
  - { offset: 0x3E24F, size: 0x8, addend: 0x0, symName: '__ZN4core3ptr65drop_in_place$LT$std..backtrace_rs..symbolize..gimli..Mapping$GT$17h66f4e447b1ca8273E', symObjAddr: 0x14C080, symBinAddr: 0x140AE0, symSize: 0xF8 }
  - { offset: 0x3E5C4, size: 0x8, addend: 0x0, symName: '__ZN4core3ptr70drop_in_place$LT$std..backtrace_rs..symbolize..gimli..stash..Stash$GT$17h191bd74af7f5960cE', symObjAddr: 0x14C4F4, symBinAddr: 0x140E74, symSize: 0xA0 }
  - { offset: 0x3EE1B, size: 0x8, addend: 0x0, symName: '__ZN4core3ptr86drop_in_place$LT$core..result..Result$LT$addr2line..Lines$C$gimli..read..Error$GT$$GT$17h9914db70dc448f10E', symObjAddr: 0x1539D8, symBinAddr: 0x148358, symSize: 0xAC }
  - { offset: 0x3F074, size: 0x8, addend: 0x0, symName: '__ZN4core3ptr275drop_in_place$LT$gimli..read..line..LineRows$LT$gimli..read..endian_slice..EndianSlice$LT$gimli..endianity..LittleEndian$GT$$C$gimli..read..line..IncompleteLineProgram$LT$gimli..read..endian_slice..EndianSlice$LT$gimli..endianity..LittleEndian$GT$$C$usize$GT$$C$usize$GT$$GT$17h90615f60fafbe3bbE', symObjAddr: 0x153CA4, symBinAddr: 0x148624, symSize: 0x64 }
  - { offset: 0x3F304, size: 0x8, addend: 0x0, symName: '__ZN4core3ptr67drop_in_place$LT$alloc..vec..Vec$LT$addr2line..LineSequence$GT$$GT$17hc26b69760f6ae149E', symObjAddr: 0x153D08, symBinAddr: 0x148688, symSize: 0x70 }
  - { offset: 0x3F459, size: 0x8, addend: 0x0, symName: '__ZN4core3ptr77drop_in_place$LT$alloc..boxed..Box$LT$$u5b$alloc..string..String$u5d$$GT$$GT$17h840bc775b9783639E', symObjAddr: 0x153D78, symBinAddr: 0x1486F8, symSize: 0x5C }
  - { offset: 0x3F470, size: 0x8, addend: 0x0, symName: '__ZN4core3ptr77drop_in_place$LT$alloc..boxed..Box$LT$$u5b$alloc..string..String$u5d$$GT$$GT$17h840bc775b9783639E', symObjAddr: 0x153D78, symBinAddr: 0x1486F8, symSize: 0x5C }
  - { offset: 0x3F5A2, size: 0x8, addend: 0x0, symName: '__ZN4core3ptr65drop_in_place$LT$alloc..vec..Vec$LT$alloc..string..String$GT$$GT$17h77dac47615bb2d21E', symObjAddr: 0x153F7C, symBinAddr: 0x14882C, symSize: 0x70 }
  - { offset: 0x3F9B6, size: 0x8, addend: 0x0, symName: '__ZN4core3ptr60drop_in_place$LT$gimli..read..abbrev..AbbreviationsCache$GT$17h6a0cb4ef6601944eE', symObjAddr: 0x157384, symBinAddr: 0x14BC34, symSize: 0x28 }
  - { offset: 0x3F9CD, size: 0x8, addend: 0x0, symName: '__ZN4core3ptr60drop_in_place$LT$gimli..read..abbrev..AbbreviationsCache$GT$17h6a0cb4ef6601944eE', symObjAddr: 0x157384, symBinAddr: 0x14BC34, symSize: 0x28 }
  - { offset: 0x3F9E2, size: 0x8, addend: 0x0, symName: '__ZN4core3ptr60drop_in_place$LT$gimli..read..abbrev..AbbreviationsCache$GT$17h6a0cb4ef6601944eE', symObjAddr: 0x157384, symBinAddr: 0x14BC34, symSize: 0x28 }
  - { offset: 0x3F9F7, size: 0x8, addend: 0x0, symName: '__ZN4core3ptr60drop_in_place$LT$gimli..read..abbrev..AbbreviationsCache$GT$17h6a0cb4ef6601944eE', symObjAddr: 0x157384, symBinAddr: 0x14BC34, symSize: 0x28 }
  - { offset: 0x3FA0B, size: 0x8, addend: 0x0, symName: '__ZN4core3ptr60drop_in_place$LT$gimli..read..abbrev..AbbreviationsCache$GT$17h6a0cb4ef6601944eE', symObjAddr: 0x157384, symBinAddr: 0x14BC34, symSize: 0x28 }
  - { offset: 0x3FC2B, size: 0x8, addend: 0x0, symName: '__ZN4core3ptr184drop_in_place$LT$core..result..Result$LT$addr2line..function..Functions$LT$gimli..read..endian_slice..EndianSlice$LT$gimli..endianity..LittleEndian$GT$$GT$$C$gimli..read..Error$GT$$GT$17h673d23ce495f03cbE', symObjAddr: 0x159CA8, symBinAddr: 0x14E558, symSize: 0x9C }
  - { offset: 0x3FF0E, size: 0x8, addend: 0x0, symName: '__ZN4core3ptr159drop_in_place$LT$alloc..sync..ArcInner$LT$gimli..read..dwarf..Dwarf$LT$gimli..read..endian_slice..EndianSlice$LT$gimli..endianity..LittleEndian$GT$$GT$$GT$$GT$17hba1a849914d66336E', symObjAddr: 0x15C2C0, symBinAddr: 0x150AD0, symSize: 0xA4 }
  - { offset: 0x40292, size: 0x8, addend: 0x0, symName: '__ZN4core3ptr181drop_in_place$LT$core..option..Option$LT$gimli..read..line..IncompleteLineProgram$LT$gimli..read..endian_slice..EndianSlice$LT$gimli..endianity..LittleEndian$GT$$C$usize$GT$$GT$$GT$17hc5c79e6f9c26545bE', symObjAddr: 0x15E6AC, symBinAddr: 0x152EBC, symSize: 0x70 }
  - { offset: 0x40570, size: 0x8, addend: 0x0, symName: '__ZN4core3ptr123drop_in_place$LT$addr2line..ResUnit$LT$gimli..read..endian_slice..EndianSlice$LT$gimli..endianity..LittleEndian$GT$$GT$$GT$17h3137bde1f0c6760aE', symObjAddr: 0x15E7F0, symBinAddr: 0x153000, symSize: 0x1A8 }
  - { offset: 0x40C4C, size: 0x8, addend: 0x0, symName: '__ZN4core3ptr137drop_in_place$LT$gimli..read..dwarf..Unit$LT$gimli..read..endian_slice..EndianSlice$LT$gimli..endianity..LittleEndian$GT$$C$usize$GT$$GT$17he278c9a7cf11f7d2E', symObjAddr: 0x15EAA4, symBinAddr: 0x1532B4, symSize: 0xA4 }
  - { offset: 0x40FA3, size: 0x8, addend: 0x0, symName: '__ZN4core3ptr146drop_in_place$LT$alloc..vec..Vec$LT$addr2line..ResUnit$LT$gimli..read..endian_slice..EndianSlice$LT$gimli..endianity..LittleEndian$GT$$GT$$GT$$GT$17h0b4f98876c7de6acE', symObjAddr: 0x15EC28, symBinAddr: 0x153438, symSize: 0xAC }
  - { offset: 0x41125, size: 0x8, addend: 0x0, symName: '__ZN4core3ptr146drop_in_place$LT$alloc..vec..Vec$LT$addr2line..SupUnit$LT$gimli..read..endian_slice..EndianSlice$LT$gimli..endianity..LittleEndian$GT$$GT$$GT$$GT$17h315af4352feaadf0E', symObjAddr: 0x15ECD4, symBinAddr: 0x1534E4, symSize: 0x16C }
  - { offset: 0x41660, size: 0x8, addend: 0x0, symName: '__ZN4core3ptr123drop_in_place$LT$addr2line..SupUnit$LT$gimli..read..endian_slice..EndianSlice$LT$gimli..endianity..LittleEndian$GT$$GT$$GT$17h9b13aaafa32e1752E', symObjAddr: 0x15EF14, symBinAddr: 0x153724, symSize: 0xA4 }
  - { offset: 0x419AB, size: 0x8, addend: 0x0, symName: '__ZN4core3ptr158drop_in_place$LT$alloc..boxed..Box$LT$$u5b$addr2line..ResUnit$LT$gimli..read..endian_slice..EndianSlice$LT$gimli..endianity..LittleEndian$GT$$GT$$u5d$$GT$$GT$17h87a166333be6fdf0E', symObjAddr: 0x15EFB8, symBinAddr: 0x1537C8, symSize: 0xB0 }
  - { offset: 0x41AAF, size: 0x8, addend: 0x0, symName: '__ZN4core3ptr71drop_in_place$LT$std..backtrace_rs..symbolize..gimli..macho..Object$GT$17h63a73f22dd67927eE', symObjAddr: 0x15F068, symBinAddr: 0x153878, symSize: 0x128 }
  - { offset: 0x41E20, size: 0x8, addend: 0x0, symName: '__ZN4core3ptr123drop_in_place$LT$addr2line..Context$LT$gimli..read..endian_slice..EndianSlice$LT$gimli..endianity..LittleEndian$GT$$GT$$GT$17h1d8025eca20c40e6E', symObjAddr: 0x15FA74, symBinAddr: 0x154284, symSize: 0x10C }
  - { offset: 0x420A5, size: 0x8, addend: 0x0, symName: '__ZN4core3ptr130drop_in_place$LT$gimli..read..dwarf..Dwarf$LT$gimli..read..endian_slice..EndianSlice$LT$gimli..endianity..LittleEndian$GT$$GT$$GT$17h4a8f48c454113fb0E', symObjAddr: 0x15FB80, symBinAddr: 0x154390, symSize: 0x84 }
  - { offset: 0x42294, size: 0x8, addend: 0x0, symName: '__ZN4core3ptr158drop_in_place$LT$alloc..boxed..Box$LT$$u5b$addr2line..SupUnit$LT$gimli..read..endian_slice..EndianSlice$LT$gimli..endianity..LittleEndian$GT$$GT$$u5d$$GT$$GT$17hbcfb02b914ae2ac6E', symObjAddr: 0x15FC04, symBinAddr: 0x154414, symSize: 0x114 }
  - { offset: 0x426EF, size: 0x8, addend: 0x0, symName: '__ZN4core3ptr383drop_in_place$LT$core..result..Result$LT$core..option..Option$LT$alloc..boxed..Box$LT$$LP$alloc..sync..Arc$LT$gimli..read..dwarf..Dwarf$LT$gimli..read..endian_slice..EndianSlice$LT$gimli..endianity..LittleEndian$GT$$GT$$GT$$C$gimli..read..dwarf..Unit$LT$gimli..read..endian_slice..EndianSlice$LT$gimli..endianity..LittleEndian$GT$$C$usize$GT$$RP$$GT$$GT$$C$gimli..read..Error$GT$$GT$17ha66ecb64725dd114E', symObjAddr: 0x15FD18, symBinAddr: 0x154528, symSize: 0x138 }
  - { offset: 0x42C91, size: 0x8, addend: 0x0, symName: '__ZN4core3ptr144drop_in_place$LT$alloc..vec..Vec$LT$core..option..Option$LT$core..option..Option$LT$std..backtrace_rs..symbolize..gimli..Mapping$GT$$GT$$GT$$GT$17h10ec8aa016ec1048E', symObjAddr: 0x161444, symBinAddr: 0x155C54, symSize: 0x104 }
  - { offset: 0x42F34, size: 0x8, addend: 0x0, symName: '__ZN4core3ptr72drop_in_place$LT$core..option..Option$LT$object..read..ObjectMap$GT$$GT$17h037ad7df051b4643E', symObjAddr: 0x162AA0, symBinAddr: 0x157198, symSize: 0x50 }
  - { offset: 0x43121, size: 0x8, addend: 0x0, symName: '__ZN4core3ptr71drop_in_place$LT$std..sync..rwlock..RwLockReadGuard$LT$$LP$$RP$$GT$$GT$17h73c609d0d27cf29fE', symObjAddr: 0x164980, symBinAddr: 0x157F7C, symSize: 0x34 }
  - { offset: 0x43260, size: 0x8, addend: 0x0, symName: '__ZN4core3ptr47drop_in_place$LT$std..io..stdio..StdoutLock$GT$17hed3ed4aaeb0aa2a6E', symObjAddr: 0x166D8C, symBinAddr: 0x15A0F8, symSize: 0x3C }
  - { offset: 0x43347, size: 0x8, addend: 0x0, symName: '__ZN4core3ptr47drop_in_place$LT$std..io..stdio..StderrLock$GT$17h665df57daa414312E', symObjAddr: 0x167390, symBinAddr: 0x15A668, symSize: 0x3C }
  - { offset: 0x4358D, size: 0x8, addend: 0x0, symName: '__ZN4core3ptr77drop_in_place$LT$std..sys..pal..unix..process..process_common..ChildPipes$GT$17h22e060b7ef1c14e9E', symObjAddr: 0x1684F0, symBinAddr: 0x15B734, symSize: 0x78 }
  - { offset: 0x436A8, size: 0x8, addend: 0x0, symName: '__ZN4core3ptr124drop_in_place$LT$alloc..collections..btree..map..BTreeMap$LT$std..ffi..os_str..OsString$C$std..ffi..os_str..OsString$GT$$GT$17h7cf9710341eb7ceeE', symObjAddr: 0x1687EC, symBinAddr: 0x15BA30, symSize: 0xC0 }
  - { offset: 0x43BFA, size: 0x8, addend: 0x0, symName: '__ZN4core3ptr107drop_in_place$LT$core..option..Option$LT$std..sys..pal..unix..process..process_common..CStringArray$GT$$GT$17h42d0008631912fb6E', symObjAddr: 0x16C540, symBinAddr: 0x15F630, symSize: 0x9C }
  - { offset: 0x43E24, size: 0x8, addend: 0x0, symName: '__ZN4core3ptr78drop_in_place$LT$core..result..Result$LT$usize$C$std..io..error..Error$GT$$GT$17h08c1bd4dc300c6aaE', symObjAddr: 0x16CC00, symBinAddr: 0x15FAD4, symSize: 0x9C }
  - { offset: 0x440BD, size: 0x8, addend: 0x0, symName: '__ZN4core3ptr77drop_in_place$LT$std..sys..pal..unix..process..process_common..StdioPipes$GT$17hb1fd2bf84b097caeE', symObjAddr: 0x16CEC0, symBinAddr: 0x15FD50, symSize: 0x54 }
  - { offset: 0x44218, size: 0x8, addend: 0x0, symName: '__ZN4core3ptr46drop_in_place$LT$alloc..vec..Vec$LT$u8$GT$$GT$17hdf74805318f3f020E', symObjAddr: 0x16D5C0, symBinAddr: 0x160450, symSize: 0x14 }
  - { offset: 0x442F3, size: 0x8, addend: 0x0, symName: '__ZN4core3ptr77drop_in_place$LT$std..panicking..begin_panic_handler..FormatStringPayload$GT$17h5ba44776366b13caE', symObjAddr: 0x16E0B4, symBinAddr: 0x160F38, symSize: 0x20 }
  - { offset: 0x44485, size: 0x8, addend: 0x0, symName: '__ZN4core3ptr112drop_in_place$LT$$LP$std..ffi..os_str..OsString$C$core..option..Option$LT$std..ffi..os_str..OsString$GT$$RP$$GT$17h2a985f48c0c9e767E', symObjAddr: 0x16ED18, symBinAddr: 0x161B9C, symSize: 0x50 }
  - { offset: 0x446C5, size: 0x8, addend: 0x0, symName: '__ZN4core3ptr48drop_in_place$LT$alloc..ffi..c_str..NulError$GT$17h56f59a001ea05922E', symObjAddr: 0x1715E0, symBinAddr: 0x16419C, symSize: 0x14 }
  - { offset: 0x446DC, size: 0x8, addend: 0x0, symName: '__ZN4core3ptr48drop_in_place$LT$alloc..ffi..c_str..NulError$GT$17h56f59a001ea05922E', symObjAddr: 0x1715E0, symBinAddr: 0x16419C, symSize: 0x14 }
  - { offset: 0x45233, size: 0x8, addend: 0x0, symName: '__ZN42_$LT$$RF$T$u20$as$u20$core..fmt..Debug$GT$3fmt17h566fc00d7a34c39fE', symObjAddr: 0x14679C, symBinAddr: 0x13B2E8, symSize: 0x228 }
  - { offset: 0x4541D, size: 0x8, addend: 0x0, symName: '__ZN42_$LT$$RF$T$u20$as$u20$core..fmt..Debug$GT$3fmt17h4c92cab2aa02765eE', symObjAddr: 0x147344, symBinAddr: 0x13BE3C, symSize: 0x10 }
  - { offset: 0x4544D, size: 0x8, addend: 0x0, symName: '__ZN42_$LT$$RF$T$u20$as$u20$core..fmt..Debug$GT$3fmt17h2e191180047e7faaE', symObjAddr: 0x1473B0, symBinAddr: 0x13BEA8, symSize: 0xB4 }
  - { offset: 0x455C6, size: 0x8, addend: 0x0, symName: '__ZN42_$LT$$RF$T$u20$as$u20$core..fmt..Debug$GT$3fmt17h1cbe5878b620a1c3E', symObjAddr: 0x165010, symBinAddr: 0x15860C, symSize: 0x14 }
  - { offset: 0x456BE, size: 0x8, addend: 0x0, symName: '__ZN42_$LT$$RF$T$u20$as$u20$core..fmt..Debug$GT$3fmt17hda674153811a342fE', symObjAddr: 0x16CF14, symBinAddr: 0x15FDA4, symSize: 0xB4 }
  - { offset: 0x45803, size: 0x8, addend: 0x0, symName: '__ZN42_$LT$$RF$T$u20$as$u20$core..fmt..Debug$GT$3fmt17h2e2284b267f1a1bcE', symObjAddr: 0x16CFC8, symBinAddr: 0x15FE58, symSize: 0xE8 }
  - { offset: 0x4595F, size: 0x8, addend: 0x0, symName: __ZN4core3fmt5Write10write_char17ha6f0c2e6fe39974dE, symObjAddr: 0x14769C, symBinAddr: 0x13C158, symSize: 0xC8 }
  - { offset: 0x45A05, size: 0x8, addend: 0x0, symName: __ZN4core3fmt5Write9write_fmt17hbefc3d0206f33b19E, symObjAddr: 0x147764, symBinAddr: 0x13C220, symSize: 0x10 }
  - { offset: 0x45A33, size: 0x8, addend: 0x0, symName: __ZN4core3fmt5Write10write_char17h55a6a58f4c9f847eE, symObjAddr: 0x1671C4, symBinAddr: 0x15A49C, symSize: 0x1BC }
  - { offset: 0x45D05, size: 0x8, addend: 0x0, symName: __ZN4core3fmt5Write9write_fmt17h0a58f9f88b641204E, symObjAddr: 0x167380, symBinAddr: 0x15A658, symSize: 0x10 }
  - { offset: 0x45D33, size: 0x8, addend: 0x0, symName: __ZN4core3fmt5Write10write_char17h0c21209421847e41E, symObjAddr: 0x1674D4, symBinAddr: 0x15A7AC, symSize: 0x1B4 }
  - { offset: 0x4623A, size: 0x8, addend: 0x0, symName: __ZN4core3fmt5Write9write_fmt17hf2a9a7007162b0c0E, symObjAddr: 0x167688, symBinAddr: 0x15A960, symSize: 0x10 }
  - { offset: 0x46268, size: 0x8, addend: 0x0, symName: __ZN4core3fmt5Write10write_char17hac5c81d58479d599E, symObjAddr: 0x167BF0, symBinAddr: 0x15AE34, symSize: 0x120 }
  - { offset: 0x463C4, size: 0x8, addend: 0x0, symName: __ZN4core3fmt5Write9write_fmt17he86590d66f31cbe3E, symObjAddr: 0x167D10, symBinAddr: 0x15AF54, symSize: 0x10 }
  - { offset: 0x463FE, size: 0x8, addend: 0x0, symName: __ZN4core3fmt5Write9write_fmt17hb6a4f5815a994b51E, symObjAddr: 0x170A78, symBinAddr: 0x16385C, symSize: 0x10 }
  - { offset: 0x46458, size: 0x8, addend: 0x0, symName: '__ZN50_$LT$$BP$mut$u20$T$u20$as$u20$core..fmt..Debug$GT$3fmt17h505d59418825879cE', symObjAddr: 0x164EF4, symBinAddr: 0x1584F0, symSize: 0xE4 }
  - { offset: 0x46577, size: 0x8, addend: 0x0, symName: '__ZN44_$LT$$RF$T$u20$as$u20$core..fmt..Display$GT$3fmt17ha4cacf7eae45238fE', symObjAddr: 0x16F480, symBinAddr: 0x162304, symSize: 0x68 }
  - { offset: 0x46902, size: 0x8, addend: 0x0, symName: '__ZN4core6result19Result$LT$T$C$E$GT$3map17h95c7002181f4dc16E', symObjAddr: 0x1606D8, symBinAddr: 0x154EE8, symSize: 0x180 }
  - { offset: 0x480CB, size: 0x8, addend: 0x0, symName: '__ZN70_$LT$core..num..error..TryFromIntError$u20$as$u20$core..fmt..Debug$GT$3fmt17h7d44906f745f0285E', symObjAddr: 0x165024, symBinAddr: 0x158620, symSize: 0xE0 }
  - { offset: 0x48CFA, size: 0x8, addend: 0x0, symName: __ZN4core9panicking13assert_failed17h848e8160ca1f7c01E, symObjAddr: 0x14675C, symBinAddr: 0x17C544, symSize: 0x40 }
  - { offset: 0x48D15, size: 0x8, addend: 0x0, symName: __ZN4core9panicking13assert_failed17h84bac741d111e975E, symObjAddr: 0x1477A4, symBinAddr: 0x17C614, symSize: 0x30 }
  - { offset: 0x48D2F, size: 0x8, addend: 0x0, symName: __ZN4core9panicking13assert_failed17hfcc1df94356fc430E, symObjAddr: 0x16CE7C, symBinAddr: 0x17DEA4, symSize: 0x44 }
  - { offset: 0x4A42B, size: 0x8, addend: 0x0, symName: __ZN4core5slice4sort25insertion_sort_shift_left17h7e189aced6c9662dE, symObjAddr: 0x153DD4, symBinAddr: 0x148754, symSize: 0xD8 }
  - { offset: 0x4A5AC, size: 0x8, addend: 0x0, symName: __ZN4core5slice4sort25insertion_sort_shift_left17hf17c9e29493ea156E, symObjAddr: 0x157668, symBinAddr: 0x14BF18, symSize: 0xE8 }
  - { offset: 0x4A6C5, size: 0x8, addend: 0x0, symName: __ZN4core5slice4sort25insertion_sort_shift_left17he4b4cb3580dc4a3bE, symObjAddr: 0x15AE30, symBinAddr: 0x14F6E0, symSize: 0xF0 }
  - { offset: 0x4A876, size: 0x8, addend: 0x0, symName: __ZN4core5slice4sort25insertion_sort_shift_left17h5ae6e1530097f744E, symObjAddr: 0x15C60C, symBinAddr: 0x150E1C, symSize: 0xBC }
  - { offset: 0x4A98F, size: 0x8, addend: 0x0, symName: __ZN4core5slice4sort25insertion_sort_shift_left17h5c1683888b4f225cE, symObjAddr: 0x15EB48, symBinAddr: 0x153358, symSize: 0xE0 }
  - { offset: 0x4AAEF, size: 0x8, addend: 0x0, symName: '__ZN4core5slice4sort12choose_pivot28_$u7b$$u7b$closure$u7d$$u7d$17h7a75628c42959453E', symObjAddr: 0x162D18, symBinAddr: 0x1571E8, symSize: 0x170 }
  - { offset: 0x4AED7, size: 0x8, addend: 0x0, symName: __ZN4core5slice4sort7recurse17h3b79bafc0bc7e41bE, symObjAddr: 0x161548, symBinAddr: 0x155D58, symSize: 0x974 }
  - { offset: 0x4BB17, size: 0x8, addend: 0x0, symName: __ZN4core5slice4sort7recurse17hf964cf7a69ed432dE, symObjAddr: 0x161EBC, symBinAddr: 0x1566CC, symSize: 0x9D4 }
  - { offset: 0x4C771, size: 0x8, addend: 0x0, symName: __ZN4core5slice4sort25insertion_sort_shift_left17h6a8d662456ba1838E, symObjAddr: 0x162890, symBinAddr: 0x1570A0, symSize: 0xF8 }
  - { offset: 0x4C87E, size: 0x8, addend: 0x0, symName: __ZN4core5slice4sort8heapsort17hbf40547faa26b214E, symObjAddr: 0x162AF0, symBinAddr: 0x17C8C4, symSize: 0xC4 }
  - { offset: 0x4C9B5, size: 0x8, addend: 0x0, symName: __ZN4core5slice4sort14break_patterns17hdc0a8cfa8b3ef9c8E, symObjAddr: 0x162BB4, symBinAddr: 0x17C988, symSize: 0x164 }
  - { offset: 0x4CA4B, size: 0x8, addend: 0x0, symName: __ZN4core5slice4sort22partial_insertion_sort17hae56eee97f1569d3E, symObjAddr: 0x162E88, symBinAddr: 0x17CAEC, symSize: 0x59C }
  - { offset: 0x4CB03, size: 0x8, addend: 0x0, symName: __ZN4core5slice4sort25insertion_sort_shift_left17h9f4c975ddf200e93E, symObjAddr: 0x163424, symBinAddr: 0x157358, symSize: 0x154 }
  - { offset: 0x4CD1C, size: 0x8, addend: 0x0, symName: __ZN4core5slice4sort26insertion_sort_shift_right17hd4287b15f962e84fE, symObjAddr: 0x163578, symBinAddr: 0x1574AC, symSize: 0x108 }
  - { offset: 0x4CEB6, size: 0x8, addend: 0x0, symName: '__ZN4core5slice4sort8heapsort28_$u7b$$u7b$closure$u7d$$u7d$17h9ab705f5e186d5d4E', symObjAddr: 0x163680, symBinAddr: 0x1575B4, symSize: 0x138 }
  - { offset: 0x4D076, size: 0x8, addend: 0x0, symName: __ZN4core5slice4sort8heapsort17h380bfff849db8153E, symObjAddr: 0x1637B8, symBinAddr: 0x17D088, symSize: 0x218 }
  - { offset: 0x4D33E, size: 0x8, addend: 0x0, symName: __ZN4core5slice4sort22partial_insertion_sort17h35c74b982e985117E, symObjAddr: 0x1639D0, symBinAddr: 0x17D2A0, symSize: 0x4AC }
  - { offset: 0x4D3A6, size: 0x8, addend: 0x0, symName: __ZN4core5slice4sort25insertion_sort_shift_left17hb3227ac59d269176E, symObjAddr: 0x163E7C, symBinAddr: 0x1576EC, symSize: 0xE8 }
  - { offset: 0x4D4BF, size: 0x8, addend: 0x0, symName: __ZN4core5slice4sort26insertion_sort_shift_right17h0dc97236aa60468fE, symObjAddr: 0x163F64, symBinAddr: 0x1577D4, symSize: 0x94 }
  - { offset: 0x4D4DD, size: 0x8, addend: 0x0, symName: __ZN4core5slice4sort26insertion_sort_shift_right17h0dc97236aa60468fE, symObjAddr: 0x163F64, symBinAddr: 0x1577D4, symSize: 0x94 }
  - { offset: 0x4E129, size: 0x8, addend: 0x0, symName: '__ZN4core3ops8function6FnOnce40call_once$u7b$$u7b$vtable.shim$u7d$$u7d$17h271601c83c5b4052E', symObjAddr: 0x147774, symBinAddr: 0x13C230, symSize: 0xC }
  - { offset: 0x4E178, size: 0x8, addend: 0x0, symName: '__ZN4core3ops8function6FnOnce40call_once$u7b$$u7b$vtable.shim$u7d$$u7d$17hc0b0e53d95b0b07cE', symObjAddr: 0x14778C, symBinAddr: 0x13C248, symSize: 0xC }
  - { offset: 0x4E1F7, size: 0x8, addend: 0x0, symName: '__ZN4core3ops8function6FnOnce40call_once$u7b$$u7b$vtable.shim$u7d$$u7d$17hab246fa7986d935fE', symObjAddr: 0x166CB4, symBinAddr: 0x15A020, symSize: 0x6C }
  - { offset: 0x4E3BC, size: 0x8, addend: 0x0, symName: '__ZN4core3ops8function6FnOnce40call_once$u7b$$u7b$vtable.shim$u7d$$u7d$17h58e07cf928b21203E', symObjAddr: 0x16D988, symBinAddr: 0x16080C, symSize: 0x4 }
  - { offset: 0x4E3D9, size: 0x8, addend: 0x0, symName: '__ZN4core3ops8function6FnOnce40call_once$u7b$$u7b$vtable.shim$u7d$$u7d$17h58e07cf928b21203E', symObjAddr: 0x16D988, symBinAddr: 0x16080C, symSize: 0x4 }
  - { offset: 0x4E3F6, size: 0x8, addend: 0x0, symName: '__ZN4core3ops8function6FnOnce40call_once$u7b$$u7b$vtable.shim$u7d$$u7d$17h474b2e6c3afd77d7E', symObjAddr: 0x16E0D4, symBinAddr: 0x160F58, symSize: 0xA8 }
  - { offset: 0x4F1F0, size: 0x8, addend: 0x0, symName: '__ZN4core5array69_$LT$impl$u20$core..fmt..Debug$u20$for$u20$$u5b$T$u3b$$u20$N$u5d$$GT$3fmt17h1da7ed6490a70714E', symObjAddr: 0x16CD34, symBinAddr: 0x15FC08, symSize: 0x148 }
  - { offset: 0x4F33C, size: 0x8, addend: 0x0, symName: '__ZN55_$LT$$RF$str$u20$as$u20$core..str..pattern..Pattern$GT$15is_contained_in17h4750b5f2af872f69E', symObjAddr: 0x16DD0C, symBinAddr: 0x160B90, symSize: 0x3A8 }
  - { offset: 0x502B5, size: 0x8, addend: 0x0, symName: '__ZN5alloc7raw_vec19RawVec$LT$T$C$A$GT$16reserve_for_push17h6763dd2ba6cdfa90E', symObjAddr: 0x1592DC, symBinAddr: 0x14DB8C, symSize: 0xD4 }
  - { offset: 0x50442, size: 0x8, addend: 0x0, symName: '__ZN5alloc7raw_vec19RawVec$LT$T$C$A$GT$16reserve_for_push17hd1472885485bc62eE', symObjAddr: 0x15E71C, symBinAddr: 0x152F2C, symSize: 0xD4 }
  - { offset: 0x505AF, size: 0x8, addend: 0x0, symName: '__ZN5alloc7raw_vec19RawVec$LT$T$C$A$GT$16reserve_for_push17ha352dd278dcae232E', symObjAddr: 0x15EE40, symBinAddr: 0x153650, symSize: 0xD4 }
  - { offset: 0x50734, size: 0x8, addend: 0x0, symName: '__ZN5alloc7raw_vec19RawVec$LT$T$C$A$GT$16reserve_for_push17h2dd6b9fea20765f3E', symObjAddr: 0x161384, symBinAddr: 0x155B94, symSize: 0xC0 }
  - { offset: 0x50C85, size: 0x8, addend: 0x0, symName: '__ZN5alloc7raw_vec19RawVec$LT$T$C$A$GT$7reserve21do_reserve_and_handle17ha03d49274d3845e4E', symObjAddr: 0x14C178, symBinAddr: 0x17C670, symSize: 0xE0 }
  - { offset: 0x50DD1, size: 0x8, addend: 0x0, symName: '__ZN5alloc7raw_vec19RawVec$LT$T$C$A$GT$7reserve21do_reserve_and_handle17h74a0ea05ab2597d9E', symObjAddr: 0x162988, symBinAddr: 0x17C7F0, symSize: 0xD4 }
  - { offset: 0x50F7E, size: 0x8, addend: 0x0, symName: '__ZN5alloc4sync16Arc$LT$T$C$A$GT$9drop_slow17h42de66f0ff970004E', symObjAddr: 0x1464E4, symBinAddr: 0x13B070, symSize: 0x6C }
  - { offset: 0x5119E, size: 0x8, addend: 0x0, symName: '__ZN5alloc4sync16Arc$LT$T$C$A$GT$9drop_slow17hcd2846e32b215a21E', symObjAddr: 0x1474A0, symBinAddr: 0x13BF5C, symSize: 0x28 }
  - { offset: 0x511BC, size: 0x8, addend: 0x0, symName: '__ZN5alloc4sync16Arc$LT$T$C$A$GT$9drop_slow17hcd2846e32b215a21E', symObjAddr: 0x1474A0, symBinAddr: 0x13BF5C, symSize: 0x28 }
  - { offset: 0x511D1, size: 0x8, addend: 0x0, symName: '__ZN5alloc4sync16Arc$LT$T$C$A$GT$9drop_slow17hcd2846e32b215a21E', symObjAddr: 0x1474A0, symBinAddr: 0x13BF5C, symSize: 0x28 }
  - { offset: 0x511E6, size: 0x8, addend: 0x0, symName: '__ZN5alloc4sync16Arc$LT$T$C$A$GT$9drop_slow17hcd2846e32b215a21E', symObjAddr: 0x1474A0, symBinAddr: 0x13BF5C, symSize: 0x28 }
  - { offset: 0x51330, size: 0x8, addend: 0x0, symName: '__ZN5alloc4sync16Arc$LT$T$C$A$GT$9drop_slow17hc1ec3efae7db7cbfE', symObjAddr: 0x150DD8, symBinAddr: 0x145758, symSize: 0x80 }
  - { offset: 0x51681, size: 0x8, addend: 0x0, symName: '__ZN5alloc4sync16Arc$LT$T$C$A$GT$9drop_slow17h61336d15740207adE', symObjAddr: 0x1572D0, symBinAddr: 0x14BB80, symSize: 0xB4 }
  - { offset: 0x5199C, size: 0x8, addend: 0x0, symName: '__ZN5alloc4sync16Arc$LT$T$C$A$GT$9drop_slow17hb0f4f1dff8220d75E', symObjAddr: 0x1573AC, symBinAddr: 0x14BC5C, symSize: 0x134 }
  - { offset: 0x52110, size: 0x8, addend: 0x0, symName: '__ZN64_$LT$alloc..ffi..c_str..NulError$u20$as$u20$core..fmt..Debug$GT$3fmt17hce921a18030f14a8E.13525', symObjAddr: 0x1715F4, symBinAddr: 0x1641B0, symSize: 0x4C }
  - { offset: 0x533A7, size: 0x8, addend: 0x0, symName: '__ZN58_$LT$alloc..string..String$u20$as$u20$core..fmt..Write$GT$9write_str17he8cb541c497929afE.13507', symObjAddr: 0x1708BC, symBinAddr: 0x1636A0, symSize: 0x78 }
  - { offset: 0x534BF, size: 0x8, addend: 0x0, symName: '__ZN58_$LT$alloc..string..String$u20$as$u20$core..fmt..Write$GT$10write_char17h1d8d81c60176af3dE.13508', symObjAddr: 0x170934, symBinAddr: 0x163718, symSize: 0x144 }
  - { offset: 0x536D6, size: 0x8, addend: 0x0, symName: '__ZN5alloc11collections5btree3map25BTreeMap$LT$K$C$V$C$A$GT$6insert17h2ba62f04ca018ef1E', symObjAddr: 0x1688AC, symBinAddr: 0x15BAF0, symSize: 0xACC }
  - { offset: 0x55725, size: 0x8, addend: 0x0, symName: '__ZN5alloc11collections5btree3map25IntoIter$LT$K$C$V$C$A$GT$10dying_next17hd5438241c02d9387E', symObjAddr: 0x1574E0, symBinAddr: 0x14BD90, symSize: 0x188 }
  - { offset: 0x55BEB, size: 0x8, addend: 0x0, symName: '__ZN5alloc11collections5btree3map25IntoIter$LT$K$C$V$C$A$GT$10dying_next17h73753baa7a503573E', symObjAddr: 0x1696B8, symBinAddr: 0x15C8FC, symSize: 0x188 }
  - { offset: 0x569F6, size: 0x8, addend: 0x0, symName: '__ZN5alloc11collections5btree6remove259_$LT$impl$u20$alloc..collections..btree..node..Handle$LT$alloc..collections..btree..node..NodeRef$LT$alloc..collections..btree..node..marker..Mut$C$K$C$V$C$alloc..collections..btree..node..marker..Leaf$GT$$C$alloc..collections..btree..node..marker..KV$GT$$GT$14remove_leaf_kv17hd48f184c9b87acafE', symObjAddr: 0x169378, symBinAddr: 0x15C5BC, symSize: 0x340 }
  - { offset: 0x57332, size: 0x8, addend: 0x0, symName: '__ZN5alloc11collections5btree4node29BalancingContext$LT$K$C$V$GT$15bulk_steal_left17h43566cb384334bd3E', symObjAddr: 0x169884, symBinAddr: 0x15CA84, symSize: 0x258 }
  - { offset: 0x579B4, size: 0x8, addend: 0x0, symName: '__ZN5alloc11collections5btree4node29BalancingContext$LT$K$C$V$GT$25merge_tracking_child_edge17h1d50db18ce6d381eE', symObjAddr: 0x169ADC, symBinAddr: 0x15CCDC, symSize: 0x27C }
  - { offset: 0x58106, size: 0x8, addend: 0x0, symName: '__ZN5alloc11collections5btree4node29BalancingContext$LT$K$C$V$GT$16bulk_steal_right17h49dd7a5de6325f49E', symObjAddr: 0x169D58, symBinAddr: 0x15CF58, symSize: 0x27C }
  - { offset: 0x58845, size: 0x8, addend: 0x0, symName: '__ZN5alloc11collections5btree4node29BalancingContext$LT$K$C$V$GT$8do_merge17h2518daca9cf7faa1E', symObjAddr: 0x169FD4, symBinAddr: 0x15D1D4, symSize: 0x22C }
  - { offset: 0x5953D, size: 0x8, addend: 0x0, symName: __ZN6object4read7archive13ArchiveMember12parse_aixbig17hbf1884dd380c7205E, symObjAddr: 0x15166C, symBinAddr: 0x145FEC, symSize: 0x1B4 }
  - { offset: 0x5966F, size: 0x8, addend: 0x0, symName: __ZN6object4read7archive13ArchiveMember5parse17hf7fed0fa798af4f9E, symObjAddr: 0x151820, symBinAddr: 0x1461A0, symSize: 0x38C }
  - { offset: 0x599B7, size: 0x8, addend: 0x0, symName: __ZN6object4read7archive23parse_bsd_extended_name17hca0d45386bf8a315E, symObjAddr: 0x151BAC, symBinAddr: 0x14652C, symSize: 0x2E0 }
  - { offset: 0x59EB5, size: 0x8, addend: 0x0, symName: '__ZN5gimli4read5dwarf14Dwarf$LT$R$GT$11attr_string17hcc4a9a75c948f54cE', symObjAddr: 0x154354, symBinAddr: 0x148C04, symSize: 0x22C }
  - { offset: 0x5A64C, size: 0x8, addend: 0x0, symName: '__ZN5gimli4read5dwarf13Unit$LT$R$GT$3new17h6b3bf2e6ff2a50e4E', symObjAddr: 0x15CBDC, symBinAddr: 0x1513EC, symSize: 0x1AD0 }
  - { offset: 0x5D04C, size: 0x8, addend: 0x0, symName: '__ZN5gimli4read7aranges30ArangeHeader$LT$R$C$Offset$GT$5parse17hec1bdfc82634f67fE', symObjAddr: 0x15C364, symBinAddr: 0x150B74, symSize: 0x2A8 }
  - { offset: 0x5D921, size: 0x8, addend: 0x0, symName: '__ZN90_$LT$gimli..read..unit..AttributeValue$LT$R$C$Offset$GT$$u20$as$u20$core..clone..Clone$GT$5clone17h0674c37b27df83acE', symObjAddr: 0x1542EC, symBinAddr: 0x148B9C, symSize: 0x68 }
  - { offset: 0x5D964, size: 0x8, addend: 0x0, symName: '__ZN5gimli4read4unit22EntriesCursor$LT$R$GT$10next_entry17hb689d5d5993b7a70E', symObjAddr: 0x15BA78, symBinAddr: 0x150328, symSize: 0x2F8 }
  - { offset: 0x5DE9C, size: 0x8, addend: 0x0, symName: '__ZN5gimli4read4unit43DebuggingInformationEntry$LT$R$C$Offset$GT$4attr17h23a0e49855348a83E', symObjAddr: 0x15BD70, symBinAddr: 0x150620, symSize: 0x16C }
  - { offset: 0x5E005, size: 0x8, addend: 0x0, symName: '__ZN5gimli4read4unit18Attribute$LT$R$GT$5value17hff54aa3203bccd33E', symObjAddr: 0x1593B0, symBinAddr: 0x14DC60, symSize: 0x3D0 }
  - { offset: 0x5E320, size: 0x8, addend: 0x0, symName: __ZN5gimli4read4unit15parse_attribute17h539ad83505fdfa67E, symObjAddr: 0x157750, symBinAddr: 0x14C000, symSize: 0xF74 }
  - { offset: 0x61123, size: 0x8, addend: 0x0, symName: '__ZN5gimli4read4unit32AttributeValue$LT$R$C$Offset$GT$8u8_value17hf6749949f81925f4E', symObjAddr: 0x15B508, symBinAddr: 0x14FDB8, symSize: 0xA0 }
  - { offset: 0x6114B, size: 0x8, addend: 0x0, symName: '__ZN5gimli4read4unit32AttributeValue$LT$R$C$Offset$GT$11udata_value17hf13f24308840f9abE', symObjAddr: 0x15B5A8, symBinAddr: 0x14FE58, symSize: 0x70 }
  - { offset: 0x6115E, size: 0x8, addend: 0x0, symName: '__ZN5gimli4read4unit32AttributeValue$LT$R$C$Offset$GT$9u16_value17h7f219dfea5fb263eE', symObjAddr: 0x15B618, symBinAddr: 0x14FEC8, symSize: 0xA0 }
  - { offset: 0x61187, size: 0x8, addend: 0x0, symName: __ZN5gimli4read4unit15skip_attributes17h762dea87dd915765E, symObjAddr: 0x159780, symBinAddr: 0x14E030, symSize: 0x528 }
  - { offset: 0x61BAD, size: 0x8, addend: 0x0, symName: '__ZN5gimli4read4unit33DebugInfoUnitHeadersIter$LT$R$GT$4next17h558ce7efb63de800E', symObjAddr: 0x15C6C8, symBinAddr: 0x150ED8, symSize: 0x514 }
  - { offset: 0x62F73, size: 0x8, addend: 0x0, symName: __ZN5gimli4read6reader6Reader12read_sleb12817hdbf474917432174bE, symObjAddr: 0x153A84, symBinAddr: 0x148404, symSize: 0x220 }
  - { offset: 0x63070, size: 0x8, addend: 0x0, symName: __ZN5gimli4read6reader6Reader12read_address17h2a2dc24091f1a4e0E, symObjAddr: 0x15B6B8, symBinAddr: 0x14FF68, symSize: 0x160 }
  - { offset: 0x633A6, size: 0x8, addend: 0x0, symName: __ZN5gimli4read6reader6Reader11read_offset17hfde6cf5e8e2c1351E, symObjAddr: 0x15B818, symBinAddr: 0x1500C8, symSize: 0xD8 }
  - { offset: 0x635FA, size: 0x8, addend: 0x0, symName: __ZN5gimli4read6reader6Reader17read_sized_offset17h33fd96c80971d92fE, symObjAddr: 0x15B8F0, symBinAddr: 0x1501A0, symSize: 0x188 }
  - { offset: 0x63B71, size: 0x8, addend: 0x0, symName: '__ZN5gimli4read6abbrev20DebugAbbrev$LT$R$GT$13abbreviations17hbfc99cc79999fa81E', symObjAddr: 0x15FE50, symBinAddr: 0x154660, symSize: 0x888 }
  - { offset: 0x65242, size: 0x8, addend: 0x0, symName: '__ZN5gimli4read8rnglists20RngListIter$LT$R$GT$4next17he1553d68ccb983a2E', symObjAddr: 0x1586C4, symBinAddr: 0x14CF74, symSize: 0xC18 }
  - { offset: 0x66781, size: 0x8, addend: 0x0, symName: '__ZN5gimli4read5index18UnitIndex$LT$R$GT$5parse17hd2d04d33e7a7807fE', symObjAddr: 0x15F190, symBinAddr: 0x1539A0, symSize: 0x8E4 }
  - { offset: 0x66CF0, size: 0x8, addend: 0x0, symName: '__ZN93_$LT$gimli..read..line..LineProgramHeader$LT$R$C$Offset$GT$$u20$as$u20$core..clone..Clone$GT$5clone17hb81e07d5d43d6a94E', symObjAddr: 0x151E8C, symBinAddr: 0x14680C, symSize: 0x2F0 }
  - { offset: 0x675C7, size: 0x8, addend: 0x0, symName: __ZN5gimli4read4line15FileEntryFormat5parse17h71dd20925e951aeeE, symObjAddr: 0x160858, symBinAddr: 0x155068, symSize: 0x2B4 }
  - { offset: 0x67D4E, size: 0x8, addend: 0x0, symName: __ZN5gimli4read4line15parse_attribute17h5d0e88160b30eefcE, symObjAddr: 0x160B0C, symBinAddr: 0x15531C, symSize: 0x878 }
  - { offset: 0x699F4, size: 0x8, addend: 0x0, symName: '__ZN9addr2line4lazy17LazyCell$LT$T$GT$11borrow_with17h568247103405e4d1E', symObjAddr: 0x15E998, symBinAddr: 0x1531A8, symSize: 0x10C }
  - { offset: 0x69CF2, size: 0x8, addend: 0x0, symName: '__ZN9addr2line16ResUnit$LT$R$GT$18dwarf_and_unit_dwo17hd2dcd7d90d3d9668E', symObjAddr: 0x154580, symBinAddr: 0x148E30, symSize: 0x2F8 }
  - { offset: 0x6A061, size: 0x8, addend: 0x0, symName: '__ZN9addr2line30LoopingLookup$LT$T$C$L$C$F$GT$10new_lookup17h6058685444464916E', symObjAddr: 0x156E6C, symBinAddr: 0x14B71C, symSize: 0x464 }
  - { offset: 0x6A4D5, size: 0x8, addend: 0x0, symName: '__ZN9addr2line16ResUnit$LT$R$GT$25find_function_or_location28_$u7b$$u7b$closure$u7d$$u7d$17h2472008c4bc0032dE', symObjAddr: 0x154878, symBinAddr: 0x149128, symSize: 0x25F4 }
  - { offset: 0x6EA46, size: 0x8, addend: 0x0, symName: '__ZN9addr2line18FrameIter$LT$R$GT$4next17he5e463c3daf3307cE', symObjAddr: 0x1513C0, symBinAddr: 0x145D40, symSize: 0x2AC }
  - { offset: 0x6EF17, size: 0x8, addend: 0x0, symName: __ZN9addr2line5Lines5parse17h0e9e0eacd838e898E, symObjAddr: 0x15217C, symBinAddr: 0x146AFC, symSize: 0x185C }
  - { offset: 0x7224F, size: 0x8, addend: 0x0, symName: __ZN9addr2line11render_file17hed3411b5fa73a753E, symObjAddr: 0x153FEC, symBinAddr: 0x14889C, symSize: 0x300 }
  - { offset: 0x72A97, size: 0x8, addend: 0x0, symName: '__ZN9addr2line8function17Function$LT$R$GT$14parse_children17hb7d4c60365daa1e7E', symObjAddr: 0x159D44, symBinAddr: 0x14E5F4, symSize: 0x10EC }
  - { offset: 0x740EE, size: 0x8, addend: 0x0, symName: __ZN9addr2line8function9name_attr17h46622d72a6f6700bE, symObjAddr: 0x15AF20, symBinAddr: 0x14F7D0, symSize: 0x230 }
  - { offset: 0x74356, size: 0x8, addend: 0x0, symName: __ZN9addr2line8function10name_entry17h237115efe537f3deE, symObjAddr: 0x15B150, symBinAddr: 0x14FA00, symSize: 0x3B8 }
  - { offset: 0x750B1, size: 0x8, addend: 0x0, symName: '__ZN68_$LT$core..num..error..ParseIntError$u20$as$u20$core..fmt..Debug$GT$3fmt17h9a29f315b2a10f97E', symObjAddr: 0x135530, symBinAddr: 0x12B180, symSize: 0xCC }
  - { offset: 0x750D2, size: 0x8, addend: 0x0, symName: '__ZN68_$LT$core..num..error..ParseIntError$u20$as$u20$core..fmt..Debug$GT$3fmt17h9a29f315b2a10f97E', symObjAddr: 0x135530, symBinAddr: 0x12B180, symSize: 0xCC }
  - { offset: 0x7533C, size: 0x8, addend: 0x0, symName: '__ZN42_$LT$$RF$T$u20$as$u20$core..fmt..Debug$GT$3fmt17h6e4af5d7ed3318f7E', symObjAddr: 0x1355FC, symBinAddr: 0x12B24C, symSize: 0x34 }
  - { offset: 0x75394, size: 0x8, addend: 0x0, symName: '__ZN44_$LT$$RF$T$u20$as$u20$core..fmt..Display$GT$3fmt17h7871d7023b348befE', symObjAddr: 0x13AD38, symBinAddr: 0x130988, symSize: 0xC00 }
  - { offset: 0x767AC, size: 0x8, addend: 0x0, symName: '__ZN45_$LT$$LP$$RP$$u20$as$u20$core..fmt..Debug$GT$3fmt17h47d8a32a513e6ff7E', symObjAddr: 0x138B10, symBinAddr: 0x12E760, symSize: 0x14 }
  - { offset: 0x767F8, size: 0x8, addend: 0x0, symName: '__ZN50_$LT$$RF$mut$u20$T$u20$as$u20$core..fmt..Debug$GT$3fmt17h3fc50b82a7494745E', symObjAddr: 0x138C14, symBinAddr: 0x12E864, symSize: 0xB0 }
  - { offset: 0x76920, size: 0x8, addend: 0x0, symName: __ZN4core3fmt5Write10write_char17h33fe9ebbea6ed338E, symObjAddr: 0x13B994, symBinAddr: 0x1315E4, symSize: 0x120 }
  - { offset: 0x76A0C, size: 0x8, addend: 0x0, symName: __ZN4core3fmt5Write9write_fmt17h5a57506e00d4dca9E, symObjAddr: 0x13BAB4, symBinAddr: 0x131704, symSize: 0x10 }
  - { offset: 0x775DF, size: 0x8, addend: 0x0, symName: '__ZN81_$LT$core..str..iter..Chars$u20$as$u20$core..iter..traits..iterator..Iterator$GT$5count17habbd2a22a91a7b2bE', symObjAddr: 0x138B24, symBinAddr: 0x12E774, symSize: 0xF0 }
  - { offset: 0x775FC, size: 0x8, addend: 0x0, symName: '__ZN81_$LT$core..str..iter..Chars$u20$as$u20$core..iter..traits..iterator..Iterator$GT$5count17habbd2a22a91a7b2bE', symObjAddr: 0x138B24, symBinAddr: 0x12E774, symSize: 0xF0 }
  - { offset: 0x77610, size: 0x8, addend: 0x0, symName: '__ZN81_$LT$core..str..iter..Chars$u20$as$u20$core..iter..traits..iterator..Iterator$GT$5count17habbd2a22a91a7b2bE', symObjAddr: 0x138B24, symBinAddr: 0x12E774, symSize: 0xF0 }
  - { offset: 0x77624, size: 0x8, addend: 0x0, symName: '__ZN81_$LT$core..str..iter..Chars$u20$as$u20$core..iter..traits..iterator..Iterator$GT$5count17habbd2a22a91a7b2bE', symObjAddr: 0x138B24, symBinAddr: 0x12E774, symSize: 0xF0 }
  - { offset: 0x77638, size: 0x8, addend: 0x0, symName: '__ZN81_$LT$core..str..iter..Chars$u20$as$u20$core..iter..traits..iterator..Iterator$GT$5count17habbd2a22a91a7b2bE', symObjAddr: 0x138B24, symBinAddr: 0x12E774, symSize: 0xF0 }
  - { offset: 0x7764C, size: 0x8, addend: 0x0, symName: '__ZN81_$LT$core..str..iter..Chars$u20$as$u20$core..iter..traits..iterator..Iterator$GT$5count17habbd2a22a91a7b2bE', symObjAddr: 0x138B24, symBinAddr: 0x12E774, symSize: 0xF0 }
  - { offset: 0x77875, size: 0x8, addend: 0x0, symName: '__ZN80_$LT$core..str..pattern..StrSearcher$u20$as$u20$core..str..pattern..Searcher$GT$4next17hdef01c2298db61f2E', symObjAddr: 0x138CC4, symBinAddr: 0x12E914, symSize: 0x36C }
  - { offset: 0x77EEB, size: 0x8, addend: 0x0, symName: '__ZN104_$LT$core..iter..sources..from_fn..FromFn$LT$F$GT$$u20$as$u20$core..iter..traits..iterator..Iterator$GT$4next17h1727928d38a13db3E', symObjAddr: 0x1384EC, symBinAddr: 0x12E13C, symSize: 0x428 }
  - { offset: 0x7861F, size: 0x8, addend: 0x0, symName: '__ZN4core4char7methods22_$LT$impl$u20$char$GT$16escape_debug_ext17h2e6cfcf6f6f059acE.13157', symObjAddr: 0x138914, symBinAddr: 0x12E564, symSize: 0x1FC }
  - { offset: 0x78969, size: 0x8, addend: 0x0, symName: __ZN14rustc_demangle2v06Parser13disambiguator17h66278c58e5764774E, symObjAddr: 0x135ED0, symBinAddr: 0x12BB20, symSize: 0x120 }
  - { offset: 0x7898D, size: 0x8, addend: 0x0, symName: __ZN14rustc_demangle2v06Parser13disambiguator17h66278c58e5764774E, symObjAddr: 0x135ED0, symBinAddr: 0x12BB20, symSize: 0x120 }
  - { offset: 0x789A2, size: 0x8, addend: 0x0, symName: __ZN14rustc_demangle2v06Parser13disambiguator17h66278c58e5764774E, symObjAddr: 0x135ED0, symBinAddr: 0x12BB20, symSize: 0x120 }
  - { offset: 0x78B83, size: 0x8, addend: 0x0, symName: __ZN14rustc_demangle2v06Parser5ident17h46621dabd3ee5b0aE, symObjAddr: 0x135FF0, symBinAddr: 0x12BC40, symSize: 0x248 }
  - { offset: 0x78FAA, size: 0x8, addend: 0x0, symName: __ZN14rustc_demangle2v06Parser9namespace17h9c268ba524a229a0E, symObjAddr: 0x1366B8, symBinAddr: 0x12C308, symSize: 0x54 }
  - { offset: 0x78FD5, size: 0x8, addend: 0x0, symName: __ZN14rustc_demangle2v06Parser9namespace17h9c268ba524a229a0E, symObjAddr: 0x1366B8, symBinAddr: 0x12C308, symSize: 0x54 }
  - { offset: 0x79062, size: 0x8, addend: 0x0, symName: __ZN14rustc_demangle2v06Parser11hex_nibbles17h4da79b38c67caa76E, symObjAddr: 0x137ABC, symBinAddr: 0x12D70C, symSize: 0xB0 }
  - { offset: 0x7911C, size: 0x8, addend: 0x0, symName: __ZN14rustc_demangle2v06Parser10integer_6217ha43003f3892f9d2aE, symObjAddr: 0x13946C, symBinAddr: 0x12F0BC, symSize: 0xF8 }
  - { offset: 0x79133, size: 0x8, addend: 0x0, symName: __ZN14rustc_demangle2v06Parser10integer_6217ha43003f3892f9d2aE, symObjAddr: 0x13946C, symBinAddr: 0x12F0BC, symSize: 0xF8 }
  - { offset: 0x79148, size: 0x8, addend: 0x0, symName: __ZN14rustc_demangle2v06Parser10integer_6217ha43003f3892f9d2aE, symObjAddr: 0x13946C, symBinAddr: 0x12F0BC, symSize: 0xF8 }
  - { offset: 0x792B5, size: 0x8, addend: 0x0, symName: __ZN14rustc_demangle2v07Printer10print_path17h05db56f94c9d0598E, symObjAddr: 0x135630, symBinAddr: 0x12B280, symSize: 0x6C4 }
  - { offset: 0x79A9D, size: 0x8, addend: 0x0, symName: __ZN14rustc_demangle2v07Printer13print_backref17h97dc7d655d8b9b0eE, symObjAddr: 0x135CF4, symBinAddr: 0x12B944, symSize: 0x1DC }
  - { offset: 0x79D60, size: 0x8, addend: 0x0, symName: __ZN14rustc_demangle2v07Printer10print_type17hc9e94f219889713aE, symObjAddr: 0x13670C, symBinAddr: 0x12C35C, symSize: 0x4CC }
  - { offset: 0x7A401, size: 0x8, addend: 0x0, symName: __ZN14rustc_demangle2v07Printer14print_sep_list17h523d6c10994e9379E, symObjAddr: 0x136BD8, symBinAddr: 0x12C828, symSize: 0xA0 }
  - { offset: 0x7A505, size: 0x8, addend: 0x0, symName: __ZN14rustc_demangle2v07Printer17print_generic_arg17h7a81964ea35251b9E, symObjAddr: 0x136C78, symBinAddr: 0x12C8C8, symSize: 0x170 }
  - { offset: 0x7A7BC, size: 0x8, addend: 0x0, symName: __ZN14rustc_demangle2v07Printer11print_const17h9853246ce2ebf92eE, symObjAddr: 0x136DE8, symBinAddr: 0x12CA38, symSize: 0x5E4 }
  - { offset: 0x7B044, size: 0x8, addend: 0x0, symName: __ZN14rustc_demangle2v07Printer25print_lifetime_from_index17hc436aaa4b1288741E, symObjAddr: 0x1373CC, symBinAddr: 0x12D01C, symSize: 0x224 }
  - { offset: 0x7B28C, size: 0x8, addend: 0x0, symName: __ZN14rustc_demangle2v07Printer16print_const_uint17h7c0b54514876126dE, symObjAddr: 0x1375F0, symBinAddr: 0x12D240, symSize: 0x2F0 }
  - { offset: 0x7B55B, size: 0x8, addend: 0x0, symName: __ZN14rustc_demangle2v07Printer13print_backref17he73f29b68ad9ab3aE, symObjAddr: 0x1378E0, symBinAddr: 0x12D530, symSize: 0x1DC }
  - { offset: 0x7B804, size: 0x8, addend: 0x0, symName: __ZN14rustc_demangle2v07Printer26print_quoted_escaped_chars17h24f58b663d04f977E, symObjAddr: 0x137CF8, symBinAddr: 0x12D948, symSize: 0x140 }
  - { offset: 0x7B9BA, size: 0x8, addend: 0x0, symName: __ZN14rustc_demangle2v07Printer23print_const_str_literal17hedd9164cfba18cc6E, symObjAddr: 0x137E38, symBinAddr: 0x12DA88, symSize: 0x2B4 }
  - { offset: 0x7BD53, size: 0x8, addend: 0x0, symName: __ZN14rustc_demangle2v07Printer14print_sep_list17h5dd9c9ddd1014a37E, symObjAddr: 0x1380EC, symBinAddr: 0x12DD3C, symSize: 0xA4 }
  - { offset: 0x7BE5F, size: 0x8, addend: 0x0, symName: __ZN14rustc_demangle2v07Printer14print_sep_list17h62a61fde5aea5aeeE, symObjAddr: 0x138190, symBinAddr: 0x12DDE0, symSize: 0xB0 }
  - { offset: 0x7BF6B, size: 0x8, addend: 0x0, symName: __ZN14rustc_demangle2v07Printer14print_sep_list17h5c02bd0746344ab6E, symObjAddr: 0x138240, symBinAddr: 0x12DE90, symSize: 0x2AC }
  - { offset: 0x7C383, size: 0x8, addend: 0x0, symName: __ZN14rustc_demangle2v07Printer9in_binder17h8367542ff0dde146E, symObjAddr: 0x139030, symBinAddr: 0x12EC80, symSize: 0x268 }
  - { offset: 0x7C774, size: 0x8, addend: 0x0, symName: __ZN14rustc_demangle2v07Printer13print_backref17h64a776ae62cda911E, symObjAddr: 0x139298, symBinAddr: 0x12EEE8, symSize: 0x1D4 }
  - { offset: 0x7CA1D, size: 0x8, addend: 0x0, symName: __ZN14rustc_demangle2v07Printer14print_sep_list17ha829d98e971260d3E, symObjAddr: 0x139564, symBinAddr: 0x12F1B4, symSize: 0xAC }
  - { offset: 0x7CB2E, size: 0x8, addend: 0x0, symName: __ZN14rustc_demangle2v07Printer9in_binder17h5ce7488e79e16670E, symObjAddr: 0x139610, symBinAddr: 0x12F260, symSize: 0x324 }
  - { offset: 0x7D13F, size: 0x8, addend: 0x0, symName: __ZN14rustc_demangle2v07Printer15print_dyn_trait17h6b8164172cf5bf41E, symObjAddr: 0x139934, symBinAddr: 0x12F584, symSize: 0x270 }
  - { offset: 0x7D3C8, size: 0x8, addend: 0x0, symName: __ZN14rustc_demangle2v07Printer30print_path_maybe_open_generics17hf0900d3230e870f8E, symObjAddr: 0x139BA4, symBinAddr: 0x12F7F4, symSize: 0x290 }
  - { offset: 0x7D8EA, size: 0x8, addend: 0x0, symName: '__ZN14rustc_demangle2v07Printer10print_type28_$u7b$$u7b$closure$u7d$$u7d$17h128bb68ae0eebaa8E', symObjAddr: 0x139E34, symBinAddr: 0x12FA84, symSize: 0x48C }
  - { offset: 0x7E22A, size: 0x8, addend: 0x0, symName: '__ZN64_$LT$rustc_demangle..v0..Ident$u20$as$u20$core..fmt..Display$GT$3fmt17h3af668c833a7bdc6E', symObjAddr: 0x136238, symBinAddr: 0x12BE88, symSize: 0x480 }
  - { offset: 0x7E664, size: 0x8, addend: 0x0, symName: __ZN14rustc_demangle2v010HexNibbles14try_parse_uint17h5689ba14db2b33b5E, symObjAddr: 0x137B6C, symBinAddr: 0x12D7BC, symSize: 0x18C }
  - { offset: 0x7E8F1, size: 0x8, addend: 0x0, symName: __ZN14rustc_demangle12try_demangle17h92954d5f324e4200E, symObjAddr: 0x13A2C0, symBinAddr: 0x12FF10, symSize: 0xA78 }
  - { offset: 0x7F82E, size: 0x8, addend: 0x0, symName: '__ZN71_$LT$rustc_demangle..SizeLimitExhausted$u20$as$u20$core..fmt..Debug$GT$3fmt17hefc183f78c59d7b1E', symObjAddr: 0x13B938, symBinAddr: 0x131588, symSize: 0x18 }
  - { offset: 0x7F84C, size: 0x8, addend: 0x0, symName: '__ZN71_$LT$rustc_demangle..SizeLimitExhausted$u20$as$u20$core..fmt..Debug$GT$3fmt17hefc183f78c59d7b1E', symObjAddr: 0x13B938, symBinAddr: 0x131588, symSize: 0x18 }
  - { offset: 0x7F877, size: 0x8, addend: 0x0, symName: '__ZN83_$LT$rustc_demangle..SizeLimitedFmtAdapter$LT$F$GT$$u20$as$u20$core..fmt..Write$GT$9write_str17h6135daa65d741247E', symObjAddr: 0x13B950, symBinAddr: 0x1315A0, symSize: 0x44 }
  - { offset: 0x74ABC, size: 0x8, addend: 0x0, symName: ___rust_start_panic, symObjAddr: 0xCEB98, symBinAddr: 0xC6930, symSize: 0xC0 }
  - { offset: 0x74AFA, size: 0x8, addend: 0x0, symName: '__ZN4core3ptr79drop_in_place$LT$alloc..boxed..Box$LT$panic_unwind..real_imp..Exception$GT$$GT$17h9be31832e01b32c0E', symObjAddr: 0xCEC70, symBinAddr: 0xC6A08, symSize: 0x70 }
  - { offset: 0x74E4B, size: 0x8, addend: 0x0, symName: __ZN12panic_unwind8real_imp5panic17exception_cleanup17h71d5728c525fec55E, symObjAddr: 0xCEC58, symBinAddr: 0xC69F0, symSize: 0x18 }
  - { offset: 0x74E72, size: 0x8, addend: 0x0, symName: ___rust_start_panic, symObjAddr: 0xCEB98, symBinAddr: 0xC6930, symSize: 0xC0 }
  - { offset: 0x7485E, size: 0x8, addend: 0x0, symName: __ZN6memchr6memchr8fallback6memchr17h095717d0cb9d6711E, symObjAddr: 0xCD120, symBinAddr: 0xC56E0, symSize: 0x1A4 }
  - { offset: 0x748AC, size: 0x8, addend: 0x0, symName: __ZN6memchr6memchr8fallback6memchr17h095717d0cb9d6711E, symObjAddr: 0xCD120, symBinAddr: 0xC56E0, symSize: 0x1A4 }
  - { offset: 0x748C3, size: 0x8, addend: 0x0, symName: __ZN6memchr6memchr8fallback6memchr17h095717d0cb9d6711E, symObjAddr: 0xCD120, symBinAddr: 0xC56E0, symSize: 0x1A4 }
  - { offset: 0x747B9, size: 0x8, addend: 0x0, symName: __ZN9hashbrown3raw11Fallibility17capacity_overflow17hc6d81e81ae5ad735E, symObjAddr: 0xC6944, symBinAddr: 0xBF4D4, symSize: 0x3C }
  - { offset: 0x747F4, size: 0x8, addend: 0x0, symName: __ZN9hashbrown3raw11Fallibility17capacity_overflow17hc6d81e81ae5ad735E, symObjAddr: 0xC6944, symBinAddr: 0xBF4D4, symSize: 0x3C }
  - { offset: 0x74823, size: 0x8, addend: 0x0, symName: __ZN9hashbrown3raw11Fallibility9alloc_err17hd8a03fcce062cac1E, symObjAddr: 0xC6980, symBinAddr: 0xBF510, symSize: 0x14 }
  - { offset: 0x2F87, size: 0x8, addend: 0x0, symName: __ZN4core3ops8function6FnOnce9call_once17h7564690821b1a761E, symObjAddr: 0xB9E00, symBinAddr: 0xB2F20, symSize: 0x8 }
  - { offset: 0x2FEA, size: 0x8, addend: 0x0, symName: __ZN4core3fmt9Formatter12pad_integral17ha93f5e57bf6ba2abE, symObjAddr: 0xBA23C, symBinAddr: 0xB3288, symSize: 0x290 }
  - { offset: 0x32CF, size: 0x8, addend: 0x0, symName: __ZN4core3fmt9Formatter3pad17hdb17bcb2d7fcba52E, symObjAddr: 0xBABB8, symBinAddr: 0xB3BB4, symSize: 0x3D4 }
  - { offset: 0x3771, size: 0x8, addend: 0x0, symName: __ZN4core3fmt9Formatter25debug_tuple_field2_finish17hc0a32cd1af85efa4E, symObjAddr: 0xC03D4, symBinAddr: 0xB8FE4, symSize: 0x100 }
  - { offset: 0x381B, size: 0x8, addend: 0x0, symName: __ZN4core3fmt9Formatter19pad_formatted_parts17h72efc7c9907798cbE, symObjAddr: 0xC3E64, symBinAddr: 0xBC9F4, symSize: 0x220 }
  - { offset: 0x3994, size: 0x8, addend: 0x0, symName: __ZN4core3fmt9Formatter21write_formatted_parts17h3e328a3f43c3ae15E, symObjAddr: 0xC4084, symBinAddr: 0xBCC14, symSize: 0x208 }
  - { offset: 0x3B90, size: 0x8, addend: 0x0, symName: '__ZN4core3fmt3num3imp52_$LT$impl$u20$core..fmt..Display$u20$for$u20$u64$GT$3fmt17hc43c76b05ea7a345E', symObjAddr: 0xBA0FC, symBinAddr: 0xB3148, symSize: 0x140 }
  - { offset: 0x3C47, size: 0x8, addend: 0x0, symName: '__ZN4core3fmt3num3imp51_$LT$impl$u20$core..fmt..Display$u20$for$u20$u8$GT$3fmt17h473e6775db5c3d11E', symObjAddr: 0xBF6C4, symBinAddr: 0xB8438, symSize: 0xB0 }
  - { offset: 0x3CE7, size: 0x8, addend: 0x0, symName: '__ZN4core3fmt3num3imp52_$LT$impl$u20$core..fmt..Display$u20$for$u20$u16$GT$3fmt17h3208808d7b6b1ba1E', symObjAddr: 0xBF96C, symBinAddr: 0xB86E0, symSize: 0x114 }
  - { offset: 0x3D91, size: 0x8, addend: 0x0, symName: '__ZN4core3fmt3num3imp52_$LT$impl$u20$core..fmt..Display$u20$for$u20$u32$GT$3fmt17ha07822ce556adc16E', symObjAddr: 0xBFA80, symBinAddr: 0xB87F4, symSize: 0x140 }
  - { offset: 0x3E2F, size: 0x8, addend: 0x0, symName: '__ZN4core3fmt3num3imp52_$LT$impl$u20$core..fmt..Display$u20$for$u20$i32$GT$3fmt17hff1772cce85aa4c2E', symObjAddr: 0xC4C80, symBinAddr: 0xBD810, symSize: 0x158 }
  - { offset: 0x3ECD, size: 0x8, addend: 0x0, symName: '__ZN4core3fmt3num3imp52_$LT$impl$u20$core..fmt..Display$u20$for$u20$i64$GT$3fmt17h6ec694655b62afccE', symObjAddr: 0xC4DD8, symBinAddr: 0xBD968, symSize: 0x150 }
  - { offset: 0x4068, size: 0x8, addend: 0x0, symName: '__ZN4core3fmt3num52_$LT$impl$u20$core..fmt..Debug$u20$for$u20$usize$GT$3fmt17hbf9cf205fca6ad33E.8711', symObjAddr: 0xBDFE0, symBinAddr: 0xB6E88, symSize: 0x21C }
  - { offset: 0x424E, size: 0x8, addend: 0x0, symName: '__ZN4core3fmt3num53_$LT$impl$u20$core..fmt..LowerHex$u20$for$u20$i16$GT$3fmt17h94f4097549b0d04bE', symObjAddr: 0xBE304, symBinAddr: 0xB70D4, symSize: 0x9C }
  - { offset: 0x433E, size: 0x8, addend: 0x0, symName: '__ZN4core3fmt3num53_$LT$impl$u20$core..fmt..LowerHex$u20$for$u20$i64$GT$3fmt17h16cdf6e75ddb1081E', symObjAddr: 0xBFE84, symBinAddr: 0xB8AA0, symSize: 0x9C }
  - { offset: 0x442A, size: 0x8, addend: 0x0, symName: '__ZN4core3fmt3num52_$LT$impl$u20$core..fmt..UpperHex$u20$for$u20$i8$GT$3fmt17h298fcfb254e0f24eE', symObjAddr: 0xC25FC, symBinAddr: 0xBB18C, symSize: 0x9C }
  - { offset: 0x4522, size: 0x8, addend: 0x0, symName: '__ZN4core3fmt3num50_$LT$impl$u20$core..fmt..Octal$u20$for$u20$i32$GT$3fmt17h9d7fd3da2e0c8812E', symObjAddr: 0xC4BF4, symBinAddr: 0xBD784, symSize: 0x8C }
  - { offset: 0x461F, size: 0x8, addend: 0x0, symName: __ZN4core3fmt9Formatter12pad_integral12write_prefix17h626fb19fc223747aE, symObjAddr: 0xBA920, symBinAddr: 0xB396C, symSize: 0x7C }
  - { offset: 0x4653, size: 0x8, addend: 0x0, symName: '__ZN42_$LT$$RF$T$u20$as$u20$core..fmt..Debug$GT$3fmt17hef981633cfeab299E', symObjAddr: 0xBB0E0, symBinAddr: 0xB3F88, symSize: 0x10 }
  - { offset: 0x466D, size: 0x8, addend: 0x0, symName: '__ZN42_$LT$$RF$T$u20$as$u20$core..fmt..Debug$GT$3fmt17h56e1a4b8767e7d3bE', symObjAddr: 0xBB320, symBinAddr: 0xB41C8, symSize: 0x220 }
  - { offset: 0x4850, size: 0x8, addend: 0x0, symName: '__ZN59_$LT$core..fmt..Arguments$u20$as$u20$core..fmt..Display$GT$3fmt17h32c7545dbf696b66E', symObjAddr: 0xBB0F0, symBinAddr: 0xB3F98, symSize: 0xC }
  - { offset: 0x4885, size: 0x8, addend: 0x0, symName: __ZN4core3fmt5write17h12f9049830901a82E, symObjAddr: 0xBB0FC, symBinAddr: 0xB3FA4, symSize: 0x224 }
  - { offset: 0x4AA2, size: 0x8, addend: 0x0, symName: __ZN4core3fmt8builders11DebugStruct5field17ha5f34d76fc7fb7b4E, symObjAddr: 0xBE718, symBinAddr: 0xB74E8, symSize: 0x1AC }
  - { offset: 0x4D53, size: 0x8, addend: 0x0, symName: '__ZN68_$LT$core..fmt..builders..PadAdapter$u20$as$u20$core..fmt..Write$GT$9write_str17hce1bcad5324212dfE', symObjAddr: 0xBE8C4, symBinAddr: 0xB7694, symSize: 0x220 }
  - { offset: 0x4F32, size: 0x8, addend: 0x0, symName: '__ZN68_$LT$core..fmt..builders..PadAdapter$u20$as$u20$core..fmt..Write$GT$10write_char17h585243a2eea19a47E', symObjAddr: 0xBEAE4, symBinAddr: 0xB78B4, symSize: 0x7C }
  - { offset: 0x4F6B, size: 0x8, addend: 0x0, symName: __ZN4core3fmt8builders10DebugTuple5field17hc02171de5a1d4811E, symObjAddr: 0xBFF2C, symBinAddr: 0xB8B3C, symSize: 0x148 }
  - { offset: 0x5189, size: 0x8, addend: 0x0, symName: __ZN4core3fmt8builders8DebugSet5entry17hbec465578a894866E, symObjAddr: 0xC0074, symBinAddr: 0xB8C84, symSize: 0x134 }
  - { offset: 0x5367, size: 0x8, addend: 0x0, symName: __ZN4core3fmt8builders8DebugMap5entry17hd86c2820548bec21E, symObjAddr: 0xC01A8, symBinAddr: 0xB8DB8, symSize: 0x22C }
  - { offset: 0x5732, size: 0x8, addend: 0x0, symName: __ZN4core3fmt5Write9write_fmt17h98045fda5480a577E, symObjAddr: 0xBEB60, symBinAddr: 0xB7930, symSize: 0x10 }
  - { offset: 0x5778, size: 0x8, addend: 0x0, symName: __ZN4core3fmt5Write10write_char17ha2f73e53e10e10b5E, symObjAddr: 0xBF55C, symBinAddr: 0xB82D0, symSize: 0x158 }
  - { offset: 0x5821, size: 0x8, addend: 0x0, symName: __ZN4core3fmt5Write9write_fmt17h929fe2d2700caef4E, symObjAddr: 0xBF6B4, symBinAddr: 0xB8428, symSize: 0x10 }
  - { offset: 0x584F, size: 0x8, addend: 0x0, symName: __ZN4core3fmt5Write10write_char17hba1c6d8281f5863dE, symObjAddr: 0xBF7D0, symBinAddr: 0xB8544, symSize: 0x158 }
  - { offset: 0x58F8, size: 0x8, addend: 0x0, symName: __ZN4core3fmt5Write9write_fmt17h8252381ac7a107faE, symObjAddr: 0xBF928, symBinAddr: 0xB869C, symSize: 0x10 }
  - { offset: 0x593F, size: 0x8, addend: 0x0, symName: '__ZN45_$LT$$RF$T$u20$as$u20$core..fmt..LowerHex$GT$3fmt17he7b5aa8fc7473928E', symObjAddr: 0xBF460, symBinAddr: 0xB81D4, symSize: 0xA0 }
  - { offset: 0x5A2C, size: 0x8, addend: 0x0, symName: '__ZN43_$LT$bool$u20$as$u20$core..fmt..Display$GT$3fmt17h7eb945e56d9deb1bE', symObjAddr: 0xC04D4, symBinAddr: 0xB90E4, symSize: 0x34 }
  - { offset: 0x5A77, size: 0x8, addend: 0x0, symName: '__ZN40_$LT$str$u20$as$u20$core..fmt..Debug$GT$3fmt17h619e2fc73bc1122cE', symObjAddr: 0xC0508, symBinAddr: 0xB9118, symSize: 0x360 }
  - { offset: 0x5DAC, size: 0x8, addend: 0x0, symName: '__ZN41_$LT$char$u20$as$u20$core..fmt..Debug$GT$3fmt17h7fa3fe9b7ef8e281E', symObjAddr: 0xC0DCC, symBinAddr: 0xB99D0, symSize: 0x164 }
  - { offset: 0x5EC4, size: 0x8, addend: 0x0, symName: '__ZN43_$LT$char$u20$as$u20$core..fmt..Display$GT$3fmt17hd4cbcfb1b8b4d4e6E', symObjAddr: 0xC13D4, symBinAddr: 0xB9FD8, symSize: 0xF0 }
  - { offset: 0x5F4E, size: 0x8, addend: 0x0, symName: __ZN4core3fmt5float29float_to_decimal_common_exact17hc2781fb804a77cf6E, symObjAddr: 0xC3984, symBinAddr: 0xBC514, symSize: 0x2C0 }
  - { offset: 0x604A, size: 0x8, addend: 0x0, symName: __ZN4core3fmt5float32float_to_decimal_common_shortest17h4fa22f2ed5edb956E, symObjAddr: 0xC3C44, symBinAddr: 0xBC7D4, symSize: 0x220 }
  - { offset: 0x615B, size: 0x8, addend: 0x0, symName: '__ZN4core3fmt5float52_$LT$impl$u20$core..fmt..Display$u20$for$u20$f32$GT$3fmt17h04bad505ac83ed4fE', symObjAddr: 0xC428C, symBinAddr: 0xBCE1C, symSize: 0x30 }
  - { offset: 0x61BA, size: 0x8, addend: 0x0, symName: '__ZN4core3fmt5float50_$LT$impl$u20$core..fmt..Debug$u20$for$u20$f64$GT$3fmt17h1da648400bb7a844E', symObjAddr: 0xC42BC, symBinAddr: 0xBCE4C, symSize: 0x9C }
  - { offset: 0x61D7, size: 0x8, addend: 0x0, symName: '__ZN4core3fmt5float50_$LT$impl$u20$core..fmt..Debug$u20$for$u20$f64$GT$3fmt17h1da648400bb7a844E', symObjAddr: 0xC42BC, symBinAddr: 0xBCE4C, symSize: 0x9C }
  - { offset: 0x621F, size: 0x8, addend: 0x0, symName: __ZN4core3fmt5float29float_to_decimal_common_exact17h2cfdf3d0cfae83daE, symObjAddr: 0xC4358, symBinAddr: 0xBCEE8, symSize: 0x2DC }
  - { offset: 0x630E, size: 0x8, addend: 0x0, symName: __ZN4core3fmt5float32float_to_decimal_common_shortest17h1d4ed138aee1fa2bE, symObjAddr: 0xC4634, symBinAddr: 0xBD1C4, symSize: 0x26C }
  - { offset: 0x63F0, size: 0x8, addend: 0x0, symName: __ZN4core3fmt5float36float_to_exponential_common_shortest17hd2a32f25ce5cf6f1E, symObjAddr: 0xC48A0, symBinAddr: 0xBD430, symSize: 0x320 }
  - { offset: 0x6556, size: 0x8, addend: 0x0, symName: '__ZN4core3fmt5float52_$LT$impl$u20$core..fmt..Display$u20$for$u20$f64$GT$3fmt17h0eba2a11aee349e3E', symObjAddr: 0xC4BC0, symBinAddr: 0xBD750, symSize: 0x34 }
  - { offset: 0x68BB, size: 0x8, addend: 0x0, symName: __ZN4core5slice6memchr14memchr_aligned17hbc9fb3ba5e7b2db1E, symObjAddr: 0xC14C4, symBinAddr: 0xBA0C8, symSize: 0xE4 }
  - { offset: 0x68D2, size: 0x8, addend: 0x0, symName: __ZN4core5slice6memchr14memchr_aligned17hbc9fb3ba5e7b2db1E, symObjAddr: 0xC14C4, symBinAddr: 0xBA0C8, symSize: 0xE4 }
  - { offset: 0x68E6, size: 0x8, addend: 0x0, symName: __ZN4core5slice6memchr14memchr_aligned17hbc9fb3ba5e7b2db1E, symObjAddr: 0xC14C4, symBinAddr: 0xBA0C8, symSize: 0xE4 }
  - { offset: 0x7146, size: 0x8, addend: 0x0, symName: __ZN4core5slice5index26slice_start_index_len_fail17hcb58b0bf46c198eeE, symObjAddr: 0xBA05C, symBinAddr: 0x1785F4, symSize: 0x50 }
  - { offset: 0x7195, size: 0x8, addend: 0x0, symName: __ZN4core5slice5index24slice_end_index_len_fail17haae792ca05f514a6E, symObjAddr: 0xBAB68, symBinAddr: 0x178694, symSize: 0x50 }
  - { offset: 0x732C, size: 0x8, addend: 0x0, symName: __ZN4core5slice5index22slice_index_order_fail17h2f1c04be0a8ddf59E, symObjAddr: 0xBE1FC, symBinAddr: 0x178838, symSize: 0x50 }
  - { offset: 0x7382, size: 0x8, addend: 0x0, symName: __ZN4core5slice5index29slice_end_index_overflow_fail17hf7104c39ac74ec3bE, symObjAddr: 0xC15A8, symBinAddr: 0x178ADC, symSize: 0x38 }
  - { offset: 0x7743, size: 0x8, addend: 0x0, symName: __ZN4core3num7dec2flt7decimal7Decimal10left_shift17hecac0ac606b8374bE, symObjAddr: 0xB9E60, symBinAddr: 0xB2F4C, symSize: 0x1FC }
  - { offset: 0x7827, size: 0x8, addend: 0x0, symName: __ZN4core3num7dec2flt7decimal7Decimal11right_shift17h1af137c6c1579d57E, symObjAddr: 0xBA99C, symBinAddr: 0xB39E8, symSize: 0x1CC }
  - { offset: 0x7A95, size: 0x8, addend: 0x0, symName: '__ZN4core3num7dec2flt60_$LT$impl$u20$core..str..traits..FromStr$u20$for$u20$f64$GT$8from_str17hfebc3cb187ca2652E', symObjAddr: 0xC2698, symBinAddr: 0xBB228, symSize: 0xC68 }
  - { offset: 0x84F2, size: 0x8, addend: 0x0, symName: __ZN4core3num7dec2flt6lemire13compute_float17h6e6f7aedb058c617E, symObjAddr: 0xC3300, symBinAddr: 0xBBE90, symSize: 0x158 }
  - { offset: 0x85BE, size: 0x8, addend: 0x0, symName: __ZN4core3num6bignum8Big32x4010mul_digits17hd0a9c1f6d494636bE, symObjAddr: 0xBB6B4, symBinAddr: 0xB455C, symSize: 0x1F8 }
  - { offset: 0x88C0, size: 0x8, addend: 0x0, symName: __ZN4core3num6bignum8Big32x408mul_pow217he96f5e4cc157dbd9E, symObjAddr: 0xBC550, symBinAddr: 0xB53F8, symSize: 0x194 }
  - { offset: 0x8BF9, size: 0x8, addend: 0x0, symName: '__ZN4core3num21_$LT$impl$u20$u32$GT$14from_str_radix17hf88c9140266648dbE', symObjAddr: 0xC3458, symBinAddr: 0xBBFE8, symSize: 0x1B0 }
  - { offset: 0x8E5B, size: 0x8, addend: 0x0, symName: __ZN4core3num7flt2dec8strategy6dragon9mul_pow1017hce8b31c286500c25E, symObjAddr: 0xBB540, symBinAddr: 0xB43E8, symSize: 0x174 }
  - { offset: 0x9044, size: 0x8, addend: 0x0, symName: __ZN4core3num7flt2dec8strategy6dragon15format_shortest17h826a3ccfdd6366acE, symObjAddr: 0xBB8AC, symBinAddr: 0xB4754, symSize: 0xCA4 }
  - { offset: 0xAA0F, size: 0x8, addend: 0x0, symName: __ZN4core3num7flt2dec8strategy6dragon12format_exact17h608149cccb022284E, symObjAddr: 0xBC6E4, symBinAddr: 0xB558C, symSize: 0xAF8 }
  - { offset: 0xC011, size: 0x8, addend: 0x0, symName: __ZN4core3num7flt2dec8strategy5grisu19format_shortest_opt17h5336edc5185c61eaE, symObjAddr: 0xBD1DC, symBinAddr: 0xB6084, symSize: 0x718 }
  - { offset: 0xC106, size: 0x8, addend: 0x0, symName: __ZN4core3num7flt2dec8strategy5grisu16format_exact_opt17h551f369887b9c559E, symObjAddr: 0xBD8F4, symBinAddr: 0xB679C, symSize: 0x410 }
  - { offset: 0xC16A, size: 0x8, addend: 0x0, symName: __ZN4core3num7flt2dec8strategy5grisu16format_exact_opt14possibly_round17h4a5cd32c9ec23ebeE, symObjAddr: 0xBDD04, symBinAddr: 0xB6BAC, symSize: 0x184 }
  - { offset: 0xC2E4, size: 0x8, addend: 0x0, symName: __ZN4core3num7flt2dec17digits_to_dec_str17hcbf114485c1da3e4E, symObjAddr: 0xBDE88, symBinAddr: 0xB6D30, symSize: 0x12C }
  - { offset: 0xC45F, size: 0x8, addend: 0x0, symName: '__ZN70_$LT$core..num..error..ParseIntError$u20$as$u20$core..fmt..Display$GT$3fmt17hca5e7cc714f35db9E', symObjAddr: 0xBDFB4, symBinAddr: 0xB6E5C, symSize: 0x2C }
  - { offset: 0xC5D8, size: 0x8, addend: 0x0, symName: '__ZN4core3num60_$LT$impl$u20$core..str..traits..FromStr$u20$for$u20$i32$GT$8from_str17hd6a43bbcaf5cd2a8E', symObjAddr: 0xC3608, symBinAddr: 0xBC198, symSize: 0x19C }
  - { offset: 0xCA5D, size: 0x8, addend: 0x0, symName: '__ZN4core3num60_$LT$impl$u20$core..str..traits..FromStr$u20$for$u20$u16$GT$8from_str17h0664a06979499267E', symObjAddr: 0xC37A4, symBinAddr: 0xBC334, symSize: 0xFC }
  - { offset: 0xCCD2, size: 0x8, addend: 0x0, symName: '__ZN4core3num60_$LT$impl$u20$core..str..traits..FromStr$u20$for$u20$u64$GT$8from_str17h7dc3093733052612E', symObjAddr: 0xC38A0, symBinAddr: 0xBC430, symSize: 0xE4 }
  - { offset: 0xD038, size: 0x8, addend: 0x0, symName: __ZN4core7unicode12unicode_data15grapheme_extend6lookup17h1898812c4b818830E, symObjAddr: 0xC0FB0, symBinAddr: 0xB9BB4, symSize: 0x138 }
  - { offset: 0xD1C8, size: 0x8, addend: 0x0, symName: __ZN4core7unicode12unicode_data10alphabetic6lookup17hddfb31e5ecd08541E, symObjAddr: 0xC4F28, symBinAddr: 0xBDAB8, symSize: 0x138 }
  - { offset: 0xD356, size: 0x8, addend: 0x0, symName: __ZN4core7unicode12unicode_data14case_ignorable6lookup17hb7eb85f6c601cafdE, symObjAddr: 0xC5060, symBinAddr: 0xBDBF0, symSize: 0x138 }
  - { offset: 0xD4E4, size: 0x8, addend: 0x0, symName: __ZN4core7unicode12unicode_data5cased6lookup17h6f0d56f3436341e3E, symObjAddr: 0xC5198, symBinAddr: 0xBDD28, symSize: 0x138 }
  - { offset: 0xD672, size: 0x8, addend: 0x0, symName: __ZN4core7unicode12unicode_data1n6lookup17h68e8e33e3fceff62E, symObjAddr: 0xC52D0, symBinAddr: 0xBDE60, symSize: 0x138 }
  - { offset: 0xD80A, size: 0x8, addend: 0x0, symName: __ZN4core7unicode9printable12is_printable17h6b9bc9526111a230E, symObjAddr: 0xC10E8, symBinAddr: 0xB9CEC, symSize: 0x2EC }
  - { offset: 0xDB7B, size: 0x8, addend: 0x0, symName: __ZN4core6result13unwrap_failed17h5e7f249f3c140ed3E, symObjAddr: 0xBF404, symBinAddr: 0x178910, symSize: 0x5C }
  - { offset: 0xDC39, size: 0x8, addend: 0x0, symName: '__ZN4core4char7methods22_$LT$impl$u20$char$GT$16escape_debug_ext17h2e6cfcf6f6f059acE', symObjAddr: 0xC0868, symBinAddr: 0xB9478, symSize: 0x1DC }
  - { offset: 0xE04F, size: 0x8, addend: 0x0, symName: __ZN4core6option13unwrap_failed17h2a1d2a89129dbc81E, symObjAddr: 0xBFBC0, symBinAddr: 0x17896C, symSize: 0x1C }
  - { offset: 0xE069, size: 0x8, addend: 0x0, symName: __ZN4core6option13expect_failed17hde2815b32da61379E, symObjAddr: 0xBFBDC, symBinAddr: 0x178988, symSize: 0x48 }
  - { offset: 0xE0D3, size: 0x8, addend: 0x0, symName: __ZN4core3ops8function6FnOnce9call_once17h7564690821b1a761E, symObjAddr: 0xB9E00, symBinAddr: 0xB2F20, symSize: 0x8 }
  - { offset: 0xE0F0, size: 0x8, addend: 0x0, symName: __ZN4core3ops8function6FnOnce9call_once17h7564690821b1a761E, symObjAddr: 0xB9E00, symBinAddr: 0xB2F20, symSize: 0x8 }
  - { offset: 0xE104, size: 0x8, addend: 0x0, symName: __ZN4core3ops8function6FnOnce9call_once17h7564690821b1a761E, symObjAddr: 0xB9E00, symBinAddr: 0xB2F20, symSize: 0x8 }
  - { offset: 0xE271, size: 0x8, addend: 0x0, symName: '__ZN71_$LT$core..ops..range..Range$LT$Idx$GT$$u20$as$u20$core..fmt..Debug$GT$3fmt17h553833ccad0cfbe7E', symObjAddr: 0xC0F30, symBinAddr: 0xB9B34, symSize: 0x80 }
  - { offset: 0xE373, size: 0x8, addend: 0x0, symName: '__ZN73_$LT$core..panic..panic_info..PanicInfo$u20$as$u20$core..fmt..Display$GT$3fmt17heb24ac64766b457cE', symObjAddr: 0xBFC24, symBinAddr: 0xB8934, symSize: 0x16C }
  - { offset: 0xE4A2, size: 0x8, addend: 0x0, symName: __ZN4core9panicking9panic_fmt17hecc1dfe94cb15bc7E, symObjAddr: 0xB9E08, symBinAddr: 0x1785C0, symSize: 0x34 }
  - { offset: 0xE4D0, size: 0x8, addend: 0x0, symName: __ZN4core9panicking18panic_bounds_check17h4213dbde00c952cfE, symObjAddr: 0xBA0AC, symBinAddr: 0x178644, symSize: 0x50 }
  - { offset: 0xE4FE, size: 0x8, addend: 0x0, symName: __ZN4core9panicking5panic17h73b079eecd9000feE, symObjAddr: 0xBAF8C, symBinAddr: 0x1786E4, symSize: 0x38 }
  - { offset: 0xE52C, size: 0x8, addend: 0x0, symName: __ZN4core9panicking13assert_failed17heaf7f3b58b4041ceE, symObjAddr: 0xBAFC4, symBinAddr: 0x17871C, symSize: 0x38 }
  - { offset: 0xE547, size: 0x8, addend: 0x0, symName: __ZN4core9panicking19assert_failed_inner17hed8bb45251918de0E, symObjAddr: 0xBAFFC, symBinAddr: 0x178754, symSize: 0xE4 }
  - { offset: 0xE5C9, size: 0x8, addend: 0x0, symName: __ZN4core9panicking18panic_nounwind_fmt17h98655d227196e238E, symObjAddr: 0xBFD90, symBinAddr: 0x1789D0, symSize: 0x50 }
  - { offset: 0xE60C, size: 0x8, addend: 0x0, symName: __ZN4core9panicking19panic_cannot_unwind17h9eaf826c71739976E, symObjAddr: 0xBFDE0, symBinAddr: 0x178A20, symSize: 0xC }
  - { offset: 0xE625, size: 0x8, addend: 0x0, symName: __ZN4core9panicking14panic_nounwind17h959538455b96f684E, symObjAddr: 0xBFDEC, symBinAddr: 0x178A2C, symSize: 0x4C }
  - { offset: 0xE654, size: 0x8, addend: 0x0, symName: __ZN4core9panicking26panic_nounwind_nobacktrace17h3478027741a33eb9E, symObjAddr: 0xBFE38, symBinAddr: 0x178A78, symSize: 0x4C }
  - { offset: 0xE683, size: 0x8, addend: 0x0, symName: __ZN4core9panicking16panic_in_cleanup17h3c1f35d0270fa810E, symObjAddr: 0xBFF20, symBinAddr: 0x178AC4, symSize: 0xC }
  - { offset: 0xE6A7, size: 0x8, addend: 0x0, symName: '__ZN36_$LT$T$u20$as$u20$core..any..Any$GT$7type_id17h5b830faffe027d36E', symObjAddr: 0xB9E3C, symBinAddr: 0xB2F28, symSize: 0x24 }
  - { offset: 0xECE3, size: 0x8, addend: 0x0, symName: __ZN4core3str5count14do_count_chars17h11085339f8bcabe7E, symObjAddr: 0xBA4CC, symBinAddr: 0xB3518, symSize: 0x454 }
  - { offset: 0xF1F4, size: 0x8, addend: 0x0, symName: __ZN4core3str6traits23str_index_overflow_fail17h4244bea25d1c3fa1E, symObjAddr: 0xC1668, symBinAddr: 0x178B14, symSize: 0x3C }
  - { offset: 0xF229, size: 0x8, addend: 0x0, symName: __ZN4core3str8converts9from_utf817hde589c1a72b99d1dE, symObjAddr: 0xBE49C, symBinAddr: 0xB726C, symSize: 0x27C }
  - { offset: 0xF240, size: 0x8, addend: 0x0, symName: __ZN4core3str8converts9from_utf817hde589c1a72b99d1dE, symObjAddr: 0xBE49C, symBinAddr: 0xB726C, symSize: 0x27C }
  - { offset: 0xF331, size: 0x8, addend: 0x0, symName: __ZN4core3str7pattern11StrSearcher3new17hd0d4a530ebcb6b91E, symObjAddr: 0xC16A4, symBinAddr: 0xBA234, symSize: 0x904 }
  - { offset: 0xF54C, size: 0x8, addend: 0x0, symName: __ZN4core3str16slice_error_fail17h91eaaa52ab77994dE, symObjAddr: 0xC0A44, symBinAddr: 0x178AD0, symSize: 0xC }
  - { offset: 0xF565, size: 0x8, addend: 0x0, symName: __ZN4core3str19slice_error_fail_rt17hf256643f2a0addddE, symObjAddr: 0xC0A50, symBinAddr: 0xB9654, symSize: 0x37C }
  - { offset: 0xF7F5, size: 0x8, addend: 0x0, symName: '__ZN66_$LT$core..str..error..Utf8Error$u20$as$u20$core..fmt..Display$GT$3fmt17h5aa3c9babafa2630E', symObjAddr: 0xC15E0, symBinAddr: 0xBA1AC, symSize: 0x88 }
  - { offset: 0xF869, size: 0x8, addend: 0x0, symName: '__ZN60_$LT$core..str..lossy..Debug$u20$as$u20$core..fmt..Debug$GT$3fmt17h7764bd37ecac77efE', symObjAddr: 0xC1FA8, symBinAddr: 0xBAB38, symSize: 0x470 }
  - { offset: 0xFC2B, size: 0x8, addend: 0x0, symName: '__ZN87_$LT$core..str..lossy..Utf8Chunks$u20$as$u20$core..iter..traits..iterator..Iterator$GT$4next17h5c1193c823d37a01E', symObjAddr: 0xC2418, symBinAddr: 0xBAFA8, symSize: 0x1E4 }
  - { offset: 0x1008E, size: 0x8, addend: 0x0, symName: '__ZN60_$LT$core..cell..BorrowError$u20$as$u20$core..fmt..Debug$GT$3fmt17h97a449f83a3a2ba5E', symObjAddr: 0xBE24C, symBinAddr: 0xB70A4, symSize: 0x18 }
  - { offset: 0x100AC, size: 0x8, addend: 0x0, symName: '__ZN60_$LT$core..cell..BorrowError$u20$as$u20$core..fmt..Debug$GT$3fmt17h97a449f83a3a2ba5E', symObjAddr: 0xBE24C, symBinAddr: 0xB70A4, symSize: 0x18 }
  - { offset: 0x100C1, size: 0x8, addend: 0x0, symName: '__ZN60_$LT$core..cell..BorrowError$u20$as$u20$core..fmt..Debug$GT$3fmt17h97a449f83a3a2ba5E', symObjAddr: 0xBE24C, symBinAddr: 0xB70A4, symSize: 0x18 }
  - { offset: 0x100D6, size: 0x8, addend: 0x0, symName: '__ZN60_$LT$core..cell..BorrowError$u20$as$u20$core..fmt..Debug$GT$3fmt17h97a449f83a3a2ba5E', symObjAddr: 0xBE24C, symBinAddr: 0xB70A4, symSize: 0x18 }
  - { offset: 0x100EF, size: 0x8, addend: 0x0, symName: '__ZN63_$LT$core..cell..BorrowMutError$u20$as$u20$core..fmt..Debug$GT$3fmt17he781ca9c77250bedE', symObjAddr: 0xBE264, symBinAddr: 0xB70BC, symSize: 0x18 }
  - { offset: 0x1010D, size: 0x8, addend: 0x0, symName: '__ZN63_$LT$core..cell..BorrowMutError$u20$as$u20$core..fmt..Debug$GT$3fmt17he781ca9c77250bedE', symObjAddr: 0xBE264, symBinAddr: 0xB70BC, symSize: 0x18 }
  - { offset: 0x10122, size: 0x8, addend: 0x0, symName: '__ZN63_$LT$core..cell..BorrowMutError$u20$as$u20$core..fmt..Debug$GT$3fmt17he781ca9c77250bedE', symObjAddr: 0xBE264, symBinAddr: 0xB70BC, symSize: 0x18 }
  - { offset: 0x10137, size: 0x8, addend: 0x0, symName: '__ZN63_$LT$core..cell..BorrowMutError$u20$as$u20$core..fmt..Debug$GT$3fmt17he781ca9c77250bedE', symObjAddr: 0xBE264, symBinAddr: 0xB70BC, symSize: 0x18 }
  - { offset: 0x1014B, size: 0x8, addend: 0x0, symName: __ZN4core4cell22panic_already_borrowed17hb35998148a7d5aedE, symObjAddr: 0xBE27C, symBinAddr: 0x178888, symSize: 0x44 }
  - { offset: 0x1017B, size: 0x8, addend: 0x0, symName: __ZN4core4cell30panic_already_mutably_borrowed17hdcf108c6bc2203fbE, symObjAddr: 0xBE2C0, symBinAddr: 0x1788CC, symSize: 0x44 }
  - { offset: 0x101BB, size: 0x8, addend: 0x0, symName: __ZN4core3ffi5c_str4CStr19from_bytes_with_nul17h8d39bcf66ea558e6E, symObjAddr: 0xBE3A0, symBinAddr: 0xB7170, symSize: 0xFC }
  - { offset: 0x102AB, size: 0x8, addend: 0x0, symName: '__ZN67_$LT$core..net..ip_addr..Ipv4Addr$u20$as$u20$core..fmt..Display$GT$3fmt17hc4bd3a5aaca5ef65E', symObjAddr: 0xBEB70, symBinAddr: 0xB7940, symSize: 0x14C }
  - { offset: 0x10422, size: 0x8, addend: 0x0, symName: '__ZN67_$LT$core..net..ip_addr..Ipv6Addr$u20$as$u20$core..fmt..Display$GT$3fmt17h458b9c85274149b6E', symObjAddr: 0xBECBC, symBinAddr: 0xB7A8C, symSize: 0x748 }
  - { offset: 0x108DB, size: 0x8, addend: 0x0, symName: '__ZN65_$LT$core..net..ip_addr..Ipv4Addr$u20$as$u20$core..fmt..Debug$GT$3fmt17h24ae2107d3621ff8E', symObjAddr: 0xBF938, symBinAddr: 0xB86AC, symSize: 0x4 }
  - { offset: 0x10937, size: 0x8, addend: 0x0, symName: '__ZN86_$LT$core..net..display_buffer..DisplayBuffer$LT$_$GT$$u20$as$u20$core..fmt..Write$GT$9write_str17h18d93c1a2dcf8e59E', symObjAddr: 0xBF500, symBinAddr: 0xB8274, symSize: 0x5C }
  - { offset: 0x109B1, size: 0x8, addend: 0x0, symName: '__ZN86_$LT$core..net..display_buffer..DisplayBuffer$LT$_$GT$$u20$as$u20$core..fmt..Write$GT$9write_str17hac9753daca901443E', symObjAddr: 0xBF774, symBinAddr: 0xB84E8, symSize: 0x5C }
  - { offset: 0x10A4A, size: 0x8, addend: 0x0, symName: '__ZN72_$LT$core..net..parser..AddrParseError$u20$as$u20$core..fmt..Display$GT$3fmt17h4105488d3fde5f13E', symObjAddr: 0xBF93C, symBinAddr: 0xB86B0, symSize: 0x30 }
...
